; Listing generated by Microsoft (R) Optimizing Compiler Version 19.21.27702.2 

	TITLE	C:\Users\Nathanael\Desktop\raven_VS2015\VS2015\Buckland_Chapter7 to 10_Raven\Raven_TargetingSystem.cpp
	.686P
	.XMM
	include listing.inc
	.model	flat

INCLUDELIB LIBCMTD
INCLUDELIB OLDNAMES

PUBLIC	?__empty_global_delete@@YAXPAX@Z		; __empty_global_delete
PUBLIC	?__empty_global_delete@@YAXPAXI@Z		; __empty_global_delete
PUBLIC	??2@YAPAXIPAX@Z					; operator new
PUBLIC	?max@?$numeric_limits@H@std@@SAHXZ		; std::numeric_limits<int>::max
PUBLIC	?min@?$numeric_limits@M@std@@SAMXZ		; std::numeric_limits<float>::min
PUBLIC	?max@?$numeric_limits@M@std@@SAMXZ		; std::numeric_limits<float>::max
PUBLIC	?min@?$numeric_limits@N@std@@SANXZ		; std::numeric_limits<double>::min
PUBLIC	?max@?$numeric_limits@N@std@@SANXZ		; std::numeric_limits<double>::max
PUBLIC	?_Allocate@_Default_allocate_traits@std@@SAPAXI@Z ; std::_Default_allocate_traits::_Allocate
PUBLIC	?_Adjust_manually_vector_aligned@std@@YAXAAPAXAAI@Z ; std::_Adjust_manually_vector_aligned
PUBLIC	??0_Container_proxy@std@@QAE@PAU_Container_base12@1@@Z ; std::_Container_proxy::_Container_proxy
PUBLIC	??0_Container_base12@std@@QAE@XZ		; std::_Container_base12::_Container_base12
PUBLIC	?_Orphan_all@_Container_base12@std@@QAEXXZ	; std::_Container_base12::_Orphan_all
PUBLIC	?_Swap_proxy_and_iterators@_Container_base12@std@@QAEXAAU12@@Z ; std::_Container_base12::_Swap_proxy_and_iterators
PUBLIC	??0_Iterator_base12@std@@QAE@XZ			; std::_Iterator_base12::_Iterator_base12
PUBLIC	??0_Iterator_base12@std@@QAE@ABU01@@Z		; std::_Iterator_base12::_Iterator_base12
PUBLIC	??4_Iterator_base12@std@@QAEAAU01@ABU01@@Z	; std::_Iterator_base12::operator=
PUBLIC	??1_Iterator_base12@std@@QAE@XZ			; std::_Iterator_base12::~_Iterator_base12
PUBLIC	?_Adopt@_Iterator_base12@std@@QAEXPBU_Container_base12@2@@Z ; std::_Iterator_base12::_Adopt
PUBLIC	?_Getcont@_Iterator_base12@std@@QBEPBU_Container_base12@2@XZ ; std::_Iterator_base12::_Getcont
PUBLIC	?_Orphan_me@_Iterator_base12@std@@QAEXXZ	; std::_Iterator_base12::_Orphan_me
PUBLIC	?_Release@_Basic_container_proxy_ptr12@std@@QAEXXZ ; std::_Basic_container_proxy_ptr12::_Release
PUBLIC	?Vec2DDistanceSq@@YANABUVector2D@@0@Z		; Vec2DDistanceSq
PUBLIC	??0Raven_TargetingSystem@@QAE@PAVRaven_Bot@@@Z	; Raven_TargetingSystem::Raven_TargetingSystem
PUBLIC	?Update@Raven_TargetingSystem@@QAEXXZ		; Raven_TargetingSystem::Update
PUBLIC	?isTargetWithinFOV@Raven_TargetingSystem@@QBE_NXZ ; Raven_TargetingSystem::isTargetWithinFOV
PUBLIC	?isTargetShootable@Raven_TargetingSystem@@QBE_NXZ ; Raven_TargetingSystem::isTargetShootable
PUBLIC	?GetLastRecordedPosition@Raven_TargetingSystem@@QBE?AUVector2D@@XZ ; Raven_TargetingSystem::GetLastRecordedPosition
PUBLIC	?GetTimeTargetHasBeenVisible@Raven_TargetingSystem@@QBENXZ ; Raven_TargetingSystem::GetTimeTargetHasBeenVisible
PUBLIC	?GetTimeTargetHasBeenOutOfView@Raven_TargetingSystem@@QBENXZ ; Raven_TargetingSystem::GetTimeTargetHasBeenOutOfView
PUBLIC	?Pos@BaseGameEntity@@QBE?AUVector2D@@XZ		; BaseGameEntity::Pos
PUBLIC	?isAlive@Raven_Bot@@QBE_NXZ			; Raven_Bot::isAlive
PUBLIC	?GetSensoryMem@Raven_Bot@@QBEQAVRaven_SensoryMemory@@XZ ; Raven_Bot::GetSensoryMem
PUBLIC	??0?$allocator@U?$_List_node@PAVRaven_Bot@@PAX@std@@@std@@QAE@XZ ; std::allocator<std::_List_node<Raven_Bot *,void *> >::allocator<std::_List_node<Raven_Bot *,void *> >
PUBLIC	?allocate@?$allocator@U?$_List_node@PAVRaven_Bot@@PAX@std@@@std@@QAEPAU?$_List_node@PAVRaven_Bot@@PAX@2@I@Z ; std::allocator<std::_List_node<Raven_Bot *,void *> >::allocate
PUBLIC	?deallocate@?$_Default_allocator_traits@V?$allocator@U?$_List_node@PAVRaven_Bot@@PAX@std@@@std@@@std@@SAXAAV?$allocator@U?$_List_node@PAVRaven_Bot@@PAX@std@@@2@QAU?$_List_node@PAVRaven_Bot@@PAX@2@I@Z ; std::_Default_allocator_traits<std::allocator<std::_List_node<Raven_Bot *,void *> > >::deallocate
PUBLIC	??0?$list@PAVRaven_Bot@@V?$allocator@PAVRaven_Bot@@@std@@@std@@QAE@XZ ; std::list<Raven_Bot *,std::allocator<Raven_Bot *> >::list<Raven_Bot *,std::allocator<Raven_Bot *> >
PUBLIC	?_Move_assign@?$list@PAVRaven_Bot@@V?$allocator@PAVRaven_Bot@@@std@@@std@@AAEXAAV12@U_Equal_allocators@2@@Z ; std::list<Raven_Bot *,std::allocator<Raven_Bot *> >::_Move_assign
PUBLIC	??4?$list@PAVRaven_Bot@@V?$allocator@PAVRaven_Bot@@@std@@@std@@QAEAAV01@$$QAV01@@Z ; std::list<Raven_Bot *,std::allocator<Raven_Bot *> >::operator=
PUBLIC	?_Swap_val@?$list@PAVRaven_Bot@@V?$allocator@PAVRaven_Bot@@@std@@@std@@AAEXAAV12@@Z ; std::list<Raven_Bot *,std::allocator<Raven_Bot *> >::_Swap_val
PUBLIC	??1?$list@PAVRaven_Bot@@V?$allocator@PAVRaven_Bot@@@std@@@std@@QAE@XZ ; std::list<Raven_Bot *,std::allocator<Raven_Bot *> >::~list<Raven_Bot *,std::allocator<Raven_Bot *> >
PUBLIC	?begin@?$list@PAVRaven_Bot@@V?$allocator@PAVRaven_Bot@@@std@@@std@@QAE?AV?$_List_iterator@V?$_List_val@U?$_List_simple_types@PAVRaven_Bot@@@std@@@std@@@2@XZ ; std::list<Raven_Bot *,std::allocator<Raven_Bot *> >::begin
PUBLIC	?end@?$list@PAVRaven_Bot@@V?$allocator@PAVRaven_Bot@@@std@@@std@@QAE?AV?$_List_iterator@V?$_List_val@U?$_List_simple_types@PAVRaven_Bot@@@std@@@std@@@2@XZ ; std::list<Raven_Bot *,std::allocator<Raven_Bot *> >::end
PUBLIC	?clear@?$list@PAVRaven_Bot@@V?$allocator@PAVRaven_Bot@@@std@@@std@@QAEXXZ ; std::list<Raven_Bot *,std::allocator<Raven_Bot *> >::clear
PUBLIC	?_Tidy@?$list@PAVRaven_Bot@@V?$allocator@PAVRaven_Bot@@@std@@@std@@AAEXXZ ; std::list<Raven_Bot *,std::allocator<Raven_Bot *> >::_Tidy
PUBLIC	?_Orphan_non_end@?$list@PAVRaven_Bot@@V?$allocator@PAVRaven_Bot@@@std@@@std@@AAEXXZ ; std::list<Raven_Bot *,std::allocator<Raven_Bot *> >::_Orphan_non_end
PUBLIC	?_Alloc_sentinel_and_proxy@?$list@PAVRaven_Bot@@V?$allocator@PAVRaven_Bot@@@std@@@std@@AAEXXZ ; std::list<Raven_Bot *,std::allocator<Raven_Bot *> >::_Alloc_sentinel_and_proxy
PUBLIC	?_Getal@?$list@PAVRaven_Bot@@V?$allocator@PAVRaven_Bot@@@std@@@std@@AAEAAV?$allocator@U?$_List_node@PAVRaven_Bot@@PAX@std@@@2@XZ ; std::list<Raven_Bot *,std::allocator<Raven_Bot *> >::_Getal
PUBLIC	?_Get_data@?$list@PAVRaven_Bot@@V?$allocator@PAVRaven_Bot@@@std@@@std@@AAEAAV?$_List_val@U?$_List_simple_types@PAVRaven_Bot@@@std@@@2@XZ ; std::list<Raven_Bot *,std::allocator<Raven_Bot *> >::_Get_data
PUBLIC	?_Myhead@?$list@PAVRaven_Bot@@V?$allocator@PAVRaven_Bot@@@std@@@std@@AAEAAPAU?$_List_node@PAVRaven_Bot@@PAX@2@XZ ; std::list<Raven_Bot *,std::allocator<Raven_Bot *> >::_Myhead
PUBLIC	??0?$_List_val@U?$_List_simple_types@PAVRaven_Bot@@@std@@@std@@QAE@XZ ; std::_List_val<std::_List_simple_types<Raven_Bot *> >::_List_val<std::_List_simple_types<Raven_Bot *> >
PUBLIC	?_Get_first@?$_Compressed_pair@V?$allocator@U?$_List_node@PAVRaven_Bot@@PAX@std@@@std@@V?$_List_val@U?$_List_simple_types@PAVRaven_Bot@@@std@@@2@$00@std@@QAEAAV?$allocator@U?$_List_node@PAVRaven_Bot@@PAX@std@@@2@XZ ; std::_Compressed_pair<std::allocator<std::_List_node<Raven_Bot *,void *> >,std::_List_val<std::_List_simple_types<Raven_Bot *> >,1>::_Get_first
PUBLIC	??0?$_List_unchecked_const_iterator@V?$_List_val@U?$_List_simple_types@PAVRaven_Bot@@@std@@@std@@U_Iterator_base12@2@@std@@QAE@PAU?$_List_node@PAVRaven_Bot@@PAX@1@PBV?$_List_val@U?$_List_simple_types@PAVRaven_Bot@@@std@@@1@@Z ; std::_List_unchecked_const_iterator<std::_List_val<std::_List_simple_types<Raven_Bot *> >,std::_Iterator_base12>::_List_unchecked_const_iterator<std::_List_val<std::_List_simple_types<Raven_Bot *> >,std::_Iterator_base12>
PUBLIC	??1?$_List_unchecked_const_iterator@V?$_List_val@U?$_List_simple_types@PAVRaven_Bot@@@std@@@std@@U_Iterator_base12@2@@std@@QAE@XZ ; std::_List_unchecked_const_iterator<std::_List_val<std::_List_simple_types<Raven_Bot *> >,std::_Iterator_base12>::~_List_unchecked_const_iterator<std::_List_val<std::_List_simple_types<Raven_Bot *> >,std::_Iterator_base12>
PUBLIC	??0?$_List_unchecked_const_iterator@V?$_List_val@U?$_List_simple_types@PAVRaven_Bot@@@std@@@std@@U_Iterator_base12@2@@std@@QAE@$$QAV01@@Z ; std::_List_unchecked_const_iterator<std::_List_val<std::_List_simple_types<Raven_Bot *> >,std::_Iterator_base12>::_List_unchecked_const_iterator<std::_List_val<std::_List_simple_types<Raven_Bot *> >,std::_Iterator_base12>
PUBLIC	??0?$_List_const_iterator@V?$_List_val@U?$_List_simple_types@PAVRaven_Bot@@@std@@@std@@@std@@QAE@PAU?$_List_node@PAVRaven_Bot@@PAX@1@PBV?$_List_val@U?$_List_simple_types@PAVRaven_Bot@@@std@@@1@@Z ; std::_List_const_iterator<std::_List_val<std::_List_simple_types<Raven_Bot *> > >::_List_const_iterator<std::_List_val<std::_List_simple_types<Raven_Bot *> > >
PUBLIC	??D?$_List_const_iterator@V?$_List_val@U?$_List_simple_types@PAVRaven_Bot@@@std@@@std@@@std@@QBEABQAVRaven_Bot@@XZ ; std::_List_const_iterator<std::_List_val<std::_List_simple_types<Raven_Bot *> > >::operator*
PUBLIC	??E?$_List_const_iterator@V?$_List_val@U?$_List_simple_types@PAVRaven_Bot@@@std@@@std@@@std@@QAEAAV01@XZ ; std::_List_const_iterator<std::_List_val<std::_List_simple_types<Raven_Bot *> > >::operator++
PUBLIC	??8?$_List_const_iterator@V?$_List_val@U?$_List_simple_types@PAVRaven_Bot@@@std@@@std@@@std@@QBE_NABV01@@Z ; std::_List_const_iterator<std::_List_val<std::_List_simple_types<Raven_Bot *> > >::operator==
PUBLIC	??9?$_List_const_iterator@V?$_List_val@U?$_List_simple_types@PAVRaven_Bot@@@std@@@std@@@std@@QBE_NABV01@@Z ; std::_List_const_iterator<std::_List_val<std::_List_simple_types<Raven_Bot *> > >::operator!=
PUBLIC	??1?$_List_const_iterator@V?$_List_val@U?$_List_simple_types@PAVRaven_Bot@@@std@@@std@@@std@@QAE@XZ ; std::_List_const_iterator<std::_List_val<std::_List_simple_types<Raven_Bot *> > >::~_List_const_iterator<std::_List_val<std::_List_simple_types<Raven_Bot *> > >
PUBLIC	??0?$_List_const_iterator@V?$_List_val@U?$_List_simple_types@PAVRaven_Bot@@@std@@@std@@@std@@QAE@$$QAV01@@Z ; std::_List_const_iterator<std::_List_val<std::_List_simple_types<Raven_Bot *> > >::_List_const_iterator<std::_List_val<std::_List_simple_types<Raven_Bot *> > >
PUBLIC	??0?$_List_iterator@V?$_List_val@U?$_List_simple_types@PAVRaven_Bot@@@std@@@std@@@std@@QAE@PAU?$_List_node@PAVRaven_Bot@@PAX@1@PBV?$_List_val@U?$_List_simple_types@PAVRaven_Bot@@@std@@@1@@Z ; std::_List_iterator<std::_List_val<std::_List_simple_types<Raven_Bot *> > >::_List_iterator<std::_List_val<std::_List_simple_types<Raven_Bot *> > >
PUBLIC	??1?$_List_iterator@V?$_List_val@U?$_List_simple_types@PAVRaven_Bot@@@std@@@std@@@std@@QAE@XZ ; std::_List_iterator<std::_List_val<std::_List_simple_types<Raven_Bot *> > >::~_List_iterator<std::_List_val<std::_List_simple_types<Raven_Bot *> > >
PUBLIC	??$addressof@V?$_List_val@U?$_List_simple_types@PAVRaven_Bot@@@std@@@std@@@std@@YAPAV?$_List_val@U?$_List_simple_types@PAVRaven_Bot@@@std@@@0@AAV10@@Z ; std::addressof<std::_List_val<std::_List_simple_types<Raven_Bot *> > >
PUBLIC	?allocate@?$allocator@U_Container_proxy@std@@@std@@QAEPAU_Container_proxy@2@I@Z ; std::allocator<std::_Container_proxy>::allocate
PUBLIC	??$?0U?$_List_node@PAVRaven_Bot@@PAX@std@@@?$allocator@U_Container_proxy@std@@@std@@QAE@ABV?$allocator@U?$_List_node@PAVRaven_Bot@@PAX@std@@@1@@Z ; std::allocator<std::_Container_proxy>::allocator<std::_Container_proxy><std::_List_node<Raven_Bot *,void *> >
PUBLIC	??$_Delete_plain@V?$allocator@U_Container_proxy@std@@@std@@@std@@YAXAAV?$allocator@U_Container_proxy@std@@@0@QAU_Container_proxy@0@@Z ; std::_Delete_plain<std::allocator<std::_Container_proxy> >
PUBLIC	??$addressof@V?$list@PAVRaven_Bot@@V?$allocator@PAVRaven_Bot@@@std@@@std@@@std@@YAPAV?$list@PAVRaven_Bot@@V?$allocator@PAVRaven_Bot@@@std@@@0@AAV10@@Z ; std::addressof<std::list<Raven_Bot *,std::allocator<Raven_Bot *> > >
PUBLIC	??$?0$$V@?$_Compressed_pair@V?$allocator@U?$_List_node@PAVRaven_Bot@@PAX@std@@@std@@V?$_List_val@U?$_List_simple_types@PAVRaven_Bot@@@std@@@2@$00@std@@QAE@U_Zero_then_variadic_args_t@1@@Z ; std::_Compressed_pair<std::allocator<std::_List_node<Raven_Bot *,void *> >,std::_List_val<std::_List_simple_types<Raven_Bot *> >,1>::_Compressed_pair<std::allocator<std::_List_node<Raven_Bot *,void *> >,std::_List_val<std::_List_simple_types<Raven_Bot *> >,1><>
PUBLIC	??0?$_Container_proxy_ptr12@V?$allocator@U_Container_proxy@std@@@std@@@std@@QAE@AAV?$allocator@U_Container_proxy@std@@@1@AAU_Container_base12@1@@Z ; std::_Container_proxy_ptr12<std::allocator<std::_Container_proxy> >::_Container_proxy_ptr12<std::allocator<std::_Container_proxy> >
PUBLIC	??1?$_Container_proxy_ptr12@V?$allocator@U_Container_proxy@std@@@std@@@std@@QAE@XZ ; std::_Container_proxy_ptr12<std::allocator<std::_Container_proxy> >::~_Container_proxy_ptr12<std::allocator<std::_Container_proxy> >
PUBLIC	??$_Unfancy@U_Container_proxy@std@@@std@@YAPAU_Container_proxy@0@PAU10@@Z ; std::_Unfancy<std::_Container_proxy>
PUBLIC	?deallocate@?$_Default_allocator_traits@V?$allocator@U_Container_proxy@std@@@std@@@std@@SAXAAV?$allocator@U_Container_proxy@std@@@2@QAU_Container_proxy@2@I@Z ; std::_Default_allocator_traits<std::allocator<std::_Container_proxy> >::deallocate
PUBLIC	??$addressof@U_Container_base12@std@@@std@@YAPAU_Container_base12@0@AAU10@@Z ; std::addressof<std::_Container_base12>
PUBLIC	??$construct@U_Container_proxy@std@@PAU_Container_base12@2@@?$_Default_allocator_traits@V?$allocator@U_Container_proxy@std@@@std@@@std@@SAXAAV?$allocator@U_Container_proxy@std@@@1@QAU_Container_proxy@1@$$QAPAU_Container_base12@1@@Z ; std::_Default_allocator_traits<std::allocator<std::_Container_proxy> >::construct<std::_Container_proxy,std::_Container_base12 *>
PUBLIC	??$addressof@PAU?$_List_node@PAVRaven_Bot@@PAX@std@@@std@@YAPAPAU?$_List_node@PAVRaven_Bot@@PAX@0@AAPAU10@@Z ; std::addressof<std::_List_node<Raven_Bot *,void *> *>
PUBLIC	??$construct@PAU?$_List_node@PAVRaven_Bot@@PAX@std@@AAPAU12@@?$_Default_allocator_traits@V?$allocator@U?$_List_node@PAVRaven_Bot@@PAX@std@@@std@@@std@@SAXAAV?$allocator@U?$_List_node@PAVRaven_Bot@@PAX@std@@@1@QAPAU?$_List_node@PAVRaven_Bot@@PAX@1@AAPAU31@@Z ; std::_Default_allocator_traits<std::allocator<std::_List_node<Raven_Bot *,void *> > >::construct<std::_List_node<Raven_Bot *,void *> *,std::_List_node<Raven_Bot *,void *> * &>
PUBLIC	??$_Free_non_head@V?$allocator@U?$_List_node@PAVRaven_Bot@@PAX@std@@@std@@@?$_List_node@PAVRaven_Bot@@PAX@std@@SAXAAV?$allocator@U?$_List_node@PAVRaven_Bot@@PAX@std@@@1@PAU01@@Z ; std::_List_node<Raven_Bot *,void *>::_Free_non_head<std::allocator<std::_List_node<Raven_Bot *,void *> > >
PUBLIC	??$_Freenode0@V?$allocator@U?$_List_node@PAVRaven_Bot@@PAX@std@@@std@@@?$_List_node@PAVRaven_Bot@@PAX@std@@SAXAAV?$allocator@U?$_List_node@PAVRaven_Bot@@PAX@std@@@1@PAU01@@Z ; std::_List_node<Raven_Bot *,void *>::_Freenode0<std::allocator<std::_List_node<Raven_Bot *,void *> > >
PUBLIC	??$_Pocma@V?$allocator@U?$_List_node@PAVRaven_Bot@@PAX@std@@@std@@@std@@YAXAAV?$allocator@U?$_List_node@PAVRaven_Bot@@PAX@std@@@0@0@Z ; std::_Pocma<std::allocator<std::_List_node<Raven_Bot *,void *> > >
PUBLIC	??$_Allocate@$07U_Default_allocate_traits@std@@$0A@@std@@YAPAXI@Z ; std::_Allocate<8,std::_Default_allocate_traits,0>
PUBLIC	??$_Deallocate@$07$0A@@std@@YAXPAXI@Z		; std::_Deallocate<8,0>
PUBLIC	??$_Get_size_of_n@$07@std@@YAII@Z		; std::_Get_size_of_n<8>
PUBLIC	??$_Get_size_of_n@$0M@@std@@YAII@Z		; std::_Get_size_of_n<12>
PUBLIC	??$_Swap_adl@PAU?$_List_node@PAVRaven_Bot@@PAX@std@@@std@@YAXAAPAU?$_List_node@PAVRaven_Bot@@PAX@0@0@Z ; std::_Swap_adl<std::_List_node<Raven_Bot *,void *> *>
PUBLIC	??$swap@PAU?$_List_node@PAVRaven_Bot@@PAX@std@@X@std@@YAXAAPAU?$_List_node@PAVRaven_Bot@@PAX@0@0@Z ; std::swap<std::_List_node<Raven_Bot *,void *> *,void>
PUBLIC	??$swap@IX@std@@YAXAAI0@Z			; std::swap<unsigned int,void>
PUBLIC	??$destroy@U_Container_proxy@std@@@?$_Default_allocator_traits@V?$allocator@U_Container_proxy@std@@@std@@@std@@SAXAAV?$allocator@U_Container_proxy@std@@@1@QAU_Container_proxy@1@@Z ; std::_Default_allocator_traits<std::allocator<std::_Container_proxy> >::destroy<std::_Container_proxy>
PUBLIC	??$_Deallocate_plain@V?$allocator@U_Container_proxy@std@@@std@@@std@@YAXAAV?$allocator@U_Container_proxy@std@@@0@QAU_Container_proxy@0@@Z ; std::_Deallocate_plain<std::allocator<std::_Container_proxy> >
PUBLIC	??$forward@PAU_Container_base12@std@@@std@@YA$$QAPAU_Container_base12@0@AAPAU10@@Z ; std::forward<std::_Container_base12 *>
PUBLIC	??$forward@AAPAU?$_List_node@PAVRaven_Bot@@PAX@std@@@std@@YAAAPAU?$_List_node@PAVRaven_Bot@@PAX@0@AAPAU10@@Z ; std::forward<std::_List_node<Raven_Bot *,void *> * &>
PUBLIC	??$_Freenode@V?$allocator@U?$_List_node@PAVRaven_Bot@@PAX@std@@@std@@@?$_List_node@PAVRaven_Bot@@PAX@std@@SAXAAV?$allocator@U?$_List_node@PAVRaven_Bot@@PAX@std@@@1@PAU01@@Z ; std::_List_node<Raven_Bot *,void *>::_Freenode<std::allocator<std::_List_node<Raven_Bot *,void *> > >
PUBLIC	??$destroy@PAU?$_List_node@PAVRaven_Bot@@PAX@std@@@?$_Default_allocator_traits@V?$allocator@U?$_List_node@PAVRaven_Bot@@PAX@std@@@std@@@std@@SAXAAV?$allocator@U?$_List_node@PAVRaven_Bot@@PAX@std@@@1@QAPAU?$_List_node@PAVRaven_Bot@@PAX@1@@Z ; std::_Default_allocator_traits<std::allocator<std::_List_node<Raven_Bot *,void *> > >::destroy<std::_List_node<Raven_Bot *,void *> *>
PUBLIC	??$move@AAV?$allocator@U?$_List_node@PAVRaven_Bot@@PAX@std@@@std@@@std@@YA$$QAV?$allocator@U?$_List_node@PAVRaven_Bot@@PAX@std@@@0@AAV10@@Z ; std::move<std::allocator<std::_List_node<Raven_Bot *,void *> > &>
PUBLIC	??$_Allocate_manually_vector_aligned@U_Default_allocate_traits@std@@@std@@YAPAXI@Z ; std::_Allocate_manually_vector_aligned<std::_Default_allocate_traits>
PUBLIC	??$move@AAI@std@@YA$$QAIAAI@Z			; std::move<unsigned int &>
PUBLIC	??$move@AAPAU?$_List_node@PAVRaven_Bot@@PAX@std@@@std@@YA$$QAPAU?$_List_node@PAVRaven_Bot@@PAX@0@AAPAU10@@Z ; std::move<std::_List_node<Raven_Bot *,void *> * &>
PUBLIC	??$addressof@PAVRaven_Bot@@@std@@YAPAPAVRaven_Bot@@AAPAV1@@Z ; std::addressof<Raven_Bot *>
PUBLIC	??$destroy@PAVRaven_Bot@@@?$_Default_allocator_traits@V?$allocator@U?$_List_node@PAVRaven_Bot@@PAX@std@@@std@@@std@@SAXAAV?$allocator@U?$_List_node@PAVRaven_Bot@@PAX@std@@@1@QAPAVRaven_Bot@@@Z ; std::_Default_allocator_traits<std::allocator<std::_List_node<Raven_Bot *,void *> > >::destroy<Raven_Bot *>
PUBLIC	??_C@_0BB@FCMFBGOM@invalid?5argument@		; `string'
PUBLIC	??_C@_02DKCKIIND@?$CFs@				; `string'
PUBLIC	??_C@_0GJ@IPOKOOCN@C?3?2Program?5Files?5?$CIx86?$CJ?2Microsof@ ; `string'
PUBLIC	??_C@_1NC@PMLIAFCM@?$AAC?$AA?3?$AA?2?$AAP?$AAr?$AAo?$AAg?$AAr?$AAa?$AAm?$AA?5?$AAF?$AAi?$AAl?$AAe@ ; `string'
PUBLIC	??_C@_1EK@NIFDJFDG@?$AAs?$AAt?$AAd?$AA?3?$AA?3?$AA_?$AAA?$AAd?$AAj?$AAu?$AAs?$AAt?$AA_?$AAm?$AAa@ ; `string'
PUBLIC	??_C@_1CG@JNLFBNGN@?$AA?$CC?$AAi?$AAn?$AAv?$AAa?$AAl?$AAi?$AAd?$AA?5?$AAa?$AAr?$AAg?$AAu?$AAm?$AAe@ ; `string'
PUBLIC	??_C@_0BJ@LFDBABJJ@ITERATOR?5LIST?5CORRUPTED?$CB@ ; `string'
PUBLIC	??_C@_1EE@KLDMFDFL@?$AAs?$AAt?$AAd?$AA?3?$AA?3?$AA_?$AAI?$AAt?$AAe?$AAr?$AAa?$AAt?$AAo?$AAr?$AA_@ ; `string'
PUBLIC	??_C@_1DG@PLBPCAEM@?$AA?$CC?$AAI?$AAT?$AAE?$AAR?$AAA?$AAT?$AAO?$AAR?$AA?5?$AAL?$AAI?$AAS?$AAT?$AA?5@ ; `string'
PUBLIC	??_C@_0DB@ENBCPNKO@cannot?5increment?5value?9initiali@ ; `string'
PUBLIC	??_C@_0GF@EDKJAGDO@C?3?2Program?5Files?5?$CIx86?$CJ?2Microsof@ ; `string'
PUBLIC	??_C@_1MK@OEMIBCNG@?$AAC?$AA?3?$AA?2?$AAP?$AAr?$AAo?$AAg?$AAr?$AAa?$AAm?$AA?5?$AAF?$AAi?$AAl?$AAe@ ; `string'
PUBLIC	??_C@_1OE@NJHNFAGK@?$AAs?$AAt?$AAd?$AA?3?$AA?3?$AA_?$AAL?$AAi?$AAs?$AAt?$AA_?$AAc?$AAo?$AAn?$AAs@ ; `string'
PUBLIC	??_C@_1GG@JLMAGPNK@?$AA?$CC?$AAc?$AAa?$AAn?$AAn?$AAo?$AAt?$AA?5?$AAi?$AAn?$AAc?$AAr?$AAe?$AAm?$AAe@ ; `string'
PUBLIC	??_C@_0CD@PMFMCEG@cannot?5increment?5end?5list?5itera@ ; `string'
PUBLIC	??_C@_1EK@OKKCFDJN@?$AA?$CC?$AAc?$AAa?$AAn?$AAn?$AAo?$AAt?$AA?5?$AAi?$AAn?$AAc?$AAr?$AAe?$AAm?$AAe@ ; `string'
PUBLIC	??_C@_0DD@MBIHGLJE@cannot?5dereference?5value?9initia@ ; `string'
PUBLIC	??_C@_1OC@BFEHCKCD@?$AAs?$AAt?$AAd?$AA?3?$AA?3?$AA_?$AAL?$AAi?$AAs?$AAt?$AA_?$AAc?$AAo?$AAn?$AAs@ ; `string'
PUBLIC	??_C@_1GK@NKIMOCIG@?$AA?$CC?$AAc?$AAa?$AAn?$AAn?$AAo?$AAt?$AA?5?$AAd?$AAe?$AAr?$AAe?$AAf?$AAe?$AAr@ ; `string'
PUBLIC	??_C@_0CF@JCBFHMPL@cannot?5dereference?5end?5list?5ite@ ; `string'
PUBLIC	??_C@_1EO@CNEFBDCF@?$AA?$CC?$AAc?$AAa?$AAn?$AAn?$AAo?$AAt?$AA?5?$AAd?$AAe?$AAr?$AAe?$AAf?$AAe?$AAr@ ; `string'
PUBLIC	??_C@_0BM@BALDKKHE@list?5iterators?5incompatible@ ; `string'
PUBLIC	??_C@_1OE@HJIALJKP@?$AAs?$AAt?$AAd?$AA?3?$AA?3?$AA_?$AAL?$AAi?$AAs?$AAt?$AA_?$AAc?$AAo?$AAn?$AAs@ ; `string'
PUBLIC	??_C@_1DM@KDLJAKOP@?$AA?$CC?$AAl?$AAi?$AAs?$AAt?$AA?5?$AAi?$AAt?$AAe?$AAr?$AAa?$AAt?$AAo?$AAr?$AAs@ ; `string'
PUBLIC	??_C@_1EO@GFNCMDLA@?$AAs?$AAt?$AAd?$AA?3?$AA?3?$AA_?$AAA?$AAl?$AAl?$AAo?$AAc?$AAa?$AAt?$AAe?$AA_@ ; `string'
PUBLIC	__real@0010000000000000
PUBLIC	__real@00800000
PUBLIC	__real@7f7fffff
PUBLIC	__real@7fefffffffffffff
EXTRN	??2@YAPAXI@Z:PROC				; operator new
EXTRN	??3@YAXPAXI@Z:PROC				; operator delete
EXTRN	__invalid_parameter:PROC
EXTRN	__CrtDbgReport:PROC
EXTRN	??0_Lockit@std@@QAE@H@Z:PROC			; std::_Lockit::_Lockit
EXTRN	??1_Lockit@std@@QAE@XZ:PROC			; std::_Lockit::~_Lockit
EXTRN	?isOpponentShootable@Raven_SensoryMemory@@QBE_NPAVRaven_Bot@@@Z:PROC ; Raven_SensoryMemory::isOpponentShootable
EXTRN	?isOpponentWithinFOV@Raven_SensoryMemory@@QBE_NPAVRaven_Bot@@@Z:PROC ; Raven_SensoryMemory::isOpponentWithinFOV
EXTRN	?GetLastRecordedPositionOfOpponent@Raven_SensoryMemory@@QBE?AUVector2D@@PAVRaven_Bot@@@Z:PROC ; Raven_SensoryMemory::GetLastRecordedPositionOfOpponent
EXTRN	?GetTimeOpponentHasBeenVisible@Raven_SensoryMemory@@QBENPAVRaven_Bot@@@Z:PROC ; Raven_SensoryMemory::GetTimeOpponentHasBeenVisible
EXTRN	?GetTimeOpponentHasBeenOutOfView@Raven_SensoryMemory@@QBENPAVRaven_Bot@@@Z:PROC ; Raven_SensoryMemory::GetTimeOpponentHasBeenOutOfView
EXTRN	?GetListOfRecentlySensedOpponents@Raven_SensoryMemory@@QBE?AV?$list@PAVRaven_Bot@@V?$allocator@PAVRaven_Bot@@@std@@@std@@XZ:PROC ; Raven_SensoryMemory::GetListOfRecentlySensedOpponents
EXTRN	@_RTC_CheckStackVars@8:PROC
EXTRN	@__security_check_cookie@4:PROC
EXTRN	__RTC_CheckEsp:PROC
EXTRN	__RTC_InitBase:PROC
EXTRN	__RTC_Shutdown:PROC
EXTRN	___CxxFrameHandler3:PROC
EXTRN	___security_cookie:DWORD
EXTRN	__fltused:DWORD
_BSS	SEGMENT
?MaxInt@@3HB DD	01H DUP (?)				; MaxInt
	ALIGN	8

?MaxDouble@@3NB DQ 01H DUP (?)				; MaxDouble
?MinDouble@@3NB DQ 01H DUP (?)				; MinDouble
?MaxFloat@@3MB DD 01H DUP (?)				; MaxFloat
?MinFloat@@3MB DD 01H DUP (?)				; MinFloat
_BSS	ENDS
CRT$XCU	SEGMENT
?MaxInt$initializer$@@3P6AXXZA DD FLAT:??__EMaxInt@@YAXXZ ; MaxInt$initializer$
CRT$XCU	ENDS
;	COMDAT __real@7fefffffffffffff
CONST	SEGMENT
__real@7fefffffffffffff DQ 07fefffffffffffffr	; 1.79769e+308
CONST	ENDS
;	COMDAT __real@7f7fffff
CONST	SEGMENT
__real@7f7fffff DD 07f7fffffr			; 3.40282e+38
CONST	ENDS
;	COMDAT __real@00800000
CONST	SEGMENT
__real@00800000 DD 000800000r			; 1.17549e-38
CONST	ENDS
;	COMDAT __real@0010000000000000
CONST	SEGMENT
__real@0010000000000000 DQ 00010000000000000r	; 2.22507e-308
CONST	ENDS
;	COMDAT rtc$TMZ
rtc$TMZ	SEGMENT
__RTC_Shutdown.rtc$TMZ DD FLAT:__RTC_Shutdown
rtc$TMZ	ENDS
;	COMDAT rtc$IMZ
rtc$IMZ	SEGMENT
__RTC_InitBase.rtc$IMZ DD FLAT:__RTC_InitBase
rtc$IMZ	ENDS
;	COMDAT ??_C@_1EO@GFNCMDLA@?$AAs?$AAt?$AAd?$AA?3?$AA?3?$AA_?$AAA?$AAl?$AAl?$AAo?$AAc?$AAa?$AAt?$AAe?$AA_@
CONST	SEGMENT
??_C@_1EO@GFNCMDLA@?$AAs?$AAt?$AAd?$AA?3?$AA?3?$AA_?$AAA?$AAl?$AAl?$AAo?$AAc?$AAa?$AAt?$AAe?$AA_@ DB 's'
	DB	00H, 't', 00H, 'd', 00H, ':', 00H, ':', 00H, '_', 00H, 'A', 00H
	DB	'l', 00H, 'l', 00H, 'o', 00H, 'c', 00H, 'a', 00H, 't', 00H, 'e'
	DB	00H, '_', 00H, 'm', 00H, 'a', 00H, 'n', 00H, 'u', 00H, 'a', 00H
	DB	'l', 00H, 'l', 00H, 'y', 00H, '_', 00H, 'v', 00H, 'e', 00H, 'c'
	DB	00H, 't', 00H, 'o', 00H, 'r', 00H, '_', 00H, 'a', 00H, 'l', 00H
	DB	'i', 00H, 'g', 00H, 'n', 00H, 'e', 00H, 'd', 00H, 00H, 00H ; `string'
CONST	ENDS
;	COMDAT ??_C@_1DM@KDLJAKOP@?$AA?$CC?$AAl?$AAi?$AAs?$AAt?$AA?5?$AAi?$AAt?$AAe?$AAr?$AAa?$AAt?$AAo?$AAr?$AAs@
CONST	SEGMENT
??_C@_1DM@KDLJAKOP@?$AA?$CC?$AAl?$AAi?$AAs?$AAt?$AA?5?$AAi?$AAt?$AAe?$AAr?$AAa?$AAt?$AAo?$AAr?$AAs@ DB '"'
	DB	00H, 'l', 00H, 'i', 00H, 's', 00H, 't', 00H, ' ', 00H, 'i', 00H
	DB	't', 00H, 'e', 00H, 'r', 00H, 'a', 00H, 't', 00H, 'o', 00H, 'r'
	DB	00H, 's', 00H, ' ', 00H, 'i', 00H, 'n', 00H, 'c', 00H, 'o', 00H
	DB	'm', 00H, 'p', 00H, 'a', 00H, 't', 00H, 'i', 00H, 'b', 00H, 'l'
	DB	00H, 'e', 00H, '"', 00H, 00H, 00H		; `string'
CONST	ENDS
;	COMDAT ??_C@_1OE@HJIALJKP@?$AAs?$AAt?$AAd?$AA?3?$AA?3?$AA_?$AAL?$AAi?$AAs?$AAt?$AA_?$AAc?$AAo?$AAn?$AAs@
CONST	SEGMENT
??_C@_1OE@HJIALJKP@?$AAs?$AAt?$AAd?$AA?3?$AA?3?$AA_?$AAL?$AAi?$AAs?$AAt?$AA_?$AAc?$AAo?$AAn?$AAs@ DB 's'
	DB	00H, 't', 00H, 'd', 00H, ':', 00H, ':', 00H, '_', 00H, 'L', 00H
	DB	'i', 00H, 's', 00H, 't', 00H, '_', 00H, 'c', 00H, 'o', 00H, 'n'
	DB	00H, 's', 00H, 't', 00H, '_', 00H, 'i', 00H, 't', 00H, 'e', 00H
	DB	'r', 00H, 'a', 00H, 't', 00H, 'o', 00H, 'r', 00H, '<', 00H, 'c'
	DB	00H, 'l', 00H, 'a', 00H, 's', 00H, 's', 00H, ' ', 00H, 's', 00H
	DB	't', 00H, 'd', 00H, ':', 00H, ':', 00H, '_', 00H, 'L', 00H, 'i'
	DB	00H, 's', 00H, 't', 00H, '_', 00H, 'v', 00H, 'a', 00H, 'l', 00H
	DB	'<', 00H, 's', 00H, 't', 00H, 'r', 00H, 'u', 00H, 'c', 00H, 't'
	DB	00H, ' ', 00H, 's', 00H, 't', 00H, 'd', 00H, ':', 00H, ':', 00H
	DB	'_', 00H, 'L', 00H, 'i', 00H, 's', 00H, 't', 00H, '_', 00H, 's'
	DB	00H, 'i', 00H, 'm', 00H, 'p', 00H, 'l', 00H, 'e', 00H, '_', 00H
	DB	't', 00H, 'y', 00H, 'p', 00H, 'e', 00H, 's', 00H, '<', 00H, 'c'
	DB	00H, 'l', 00H, 'a', 00H, 's', 00H, 's', 00H, ' ', 00H, 'R', 00H
	DB	'a', 00H, 'v', 00H, 'e', 00H, 'n', 00H, '_', 00H, 'B', 00H, 'o'
	DB	00H, 't', 00H, ' ', 00H, '*', 00H, '>', 00H, ' ', 00H, '>', 00H
	DB	' ', 00H, '>', 00H, ':', 00H, ':', 00H, 'o', 00H, 'p', 00H, 'e'
	DB	00H, 'r', 00H, 'a', 00H, 't', 00H, 'o', 00H, 'r', 00H, ' ', 00H
	DB	'=', 00H, '=', 00H, 00H, 00H			; `string'
CONST	ENDS
;	COMDAT ??_C@_0BM@BALDKKHE@list?5iterators?5incompatible@
CONST	SEGMENT
??_C@_0BM@BALDKKHE@list?5iterators?5incompatible@ DB 'list iterators inco'
	DB	'mpatible', 00H				; `string'
CONST	ENDS
;	COMDAT ??_C@_1EO@CNEFBDCF@?$AA?$CC?$AAc?$AAa?$AAn?$AAn?$AAo?$AAt?$AA?5?$AAd?$AAe?$AAr?$AAe?$AAf?$AAe?$AAr@
CONST	SEGMENT
??_C@_1EO@CNEFBDCF@?$AA?$CC?$AAc?$AAa?$AAn?$AAn?$AAo?$AAt?$AA?5?$AAd?$AAe?$AAr?$AAe?$AAf?$AAe?$AAr@ DB '"'
	DB	00H, 'c', 00H, 'a', 00H, 'n', 00H, 'n', 00H, 'o', 00H, 't', 00H
	DB	' ', 00H, 'd', 00H, 'e', 00H, 'r', 00H, 'e', 00H, 'f', 00H, 'e'
	DB	00H, 'r', 00H, 'e', 00H, 'n', 00H, 'c', 00H, 'e', 00H, ' ', 00H
	DB	'e', 00H, 'n', 00H, 'd', 00H, ' ', 00H, 'l', 00H, 'i', 00H, 's'
	DB	00H, 't', 00H, ' ', 00H, 'i', 00H, 't', 00H, 'e', 00H, 'r', 00H
	DB	'a', 00H, 't', 00H, 'o', 00H, 'r', 00H, '"', 00H, 00H, 00H ; `string'
CONST	ENDS
;	COMDAT ??_C@_0CF@JCBFHMPL@cannot?5dereference?5end?5list?5ite@
CONST	SEGMENT
??_C@_0CF@JCBFHMPL@cannot?5dereference?5end?5list?5ite@ DB 'cannot derefe'
	DB	'rence end list iterator', 00H		; `string'
CONST	ENDS
;	COMDAT ??_C@_1GK@NKIMOCIG@?$AA?$CC?$AAc?$AAa?$AAn?$AAn?$AAo?$AAt?$AA?5?$AAd?$AAe?$AAr?$AAe?$AAf?$AAe?$AAr@
CONST	SEGMENT
??_C@_1GK@NKIMOCIG@?$AA?$CC?$AAc?$AAa?$AAn?$AAn?$AAo?$AAt?$AA?5?$AAd?$AAe?$AAr?$AAe?$AAf?$AAe?$AAr@ DB '"'
	DB	00H, 'c', 00H, 'a', 00H, 'n', 00H, 'n', 00H, 'o', 00H, 't', 00H
	DB	' ', 00H, 'd', 00H, 'e', 00H, 'r', 00H, 'e', 00H, 'f', 00H, 'e'
	DB	00H, 'r', 00H, 'e', 00H, 'n', 00H, 'c', 00H, 'e', 00H, ' ', 00H
	DB	'v', 00H, 'a', 00H, 'l', 00H, 'u', 00H, 'e', 00H, '-', 00H, 'i'
	DB	00H, 'n', 00H, 'i', 00H, 't', 00H, 'i', 00H, 'a', 00H, 'l', 00H
	DB	'i', 00H, 'z', 00H, 'e', 00H, 'd', 00H, ' ', 00H, 'l', 00H, 'i'
	DB	00H, 's', 00H, 't', 00H, ' ', 00H, 'i', 00H, 't', 00H, 'e', 00H
	DB	'r', 00H, 'a', 00H, 't', 00H, 'o', 00H, 'r', 00H, '"', 00H, 00H
	DB	00H						; `string'
CONST	ENDS
;	COMDAT ??_C@_1OC@BFEHCKCD@?$AAs?$AAt?$AAd?$AA?3?$AA?3?$AA_?$AAL?$AAi?$AAs?$AAt?$AA_?$AAc?$AAo?$AAn?$AAs@
CONST	SEGMENT
??_C@_1OC@BFEHCKCD@?$AAs?$AAt?$AAd?$AA?3?$AA?3?$AA_?$AAL?$AAi?$AAs?$AAt?$AA_?$AAc?$AAo?$AAn?$AAs@ DB 's'
	DB	00H, 't', 00H, 'd', 00H, ':', 00H, ':', 00H, '_', 00H, 'L', 00H
	DB	'i', 00H, 's', 00H, 't', 00H, '_', 00H, 'c', 00H, 'o', 00H, 'n'
	DB	00H, 's', 00H, 't', 00H, '_', 00H, 'i', 00H, 't', 00H, 'e', 00H
	DB	'r', 00H, 'a', 00H, 't', 00H, 'o', 00H, 'r', 00H, '<', 00H, 'c'
	DB	00H, 'l', 00H, 'a', 00H, 's', 00H, 's', 00H, ' ', 00H, 's', 00H
	DB	't', 00H, 'd', 00H, ':', 00H, ':', 00H, '_', 00H, 'L', 00H, 'i'
	DB	00H, 's', 00H, 't', 00H, '_', 00H, 'v', 00H, 'a', 00H, 'l', 00H
	DB	'<', 00H, 's', 00H, 't', 00H, 'r', 00H, 'u', 00H, 'c', 00H, 't'
	DB	00H, ' ', 00H, 's', 00H, 't', 00H, 'd', 00H, ':', 00H, ':', 00H
	DB	'_', 00H, 'L', 00H, 'i', 00H, 's', 00H, 't', 00H, '_', 00H, 's'
	DB	00H, 'i', 00H, 'm', 00H, 'p', 00H, 'l', 00H, 'e', 00H, '_', 00H
	DB	't', 00H, 'y', 00H, 'p', 00H, 'e', 00H, 's', 00H, '<', 00H, 'c'
	DB	00H, 'l', 00H, 'a', 00H, 's', 00H, 's', 00H, ' ', 00H, 'R', 00H
	DB	'a', 00H, 'v', 00H, 'e', 00H, 'n', 00H, '_', 00H, 'B', 00H, 'o'
	DB	00H, 't', 00H, ' ', 00H, '*', 00H, '>', 00H, ' ', 00H, '>', 00H
	DB	' ', 00H, '>', 00H, ':', 00H, ':', 00H, 'o', 00H, 'p', 00H, 'e'
	DB	00H, 'r', 00H, 'a', 00H, 't', 00H, 'o', 00H, 'r', 00H, ' ', 00H
	DB	'*', 00H, 00H, 00H				; `string'
CONST	ENDS
;	COMDAT ??_C@_0DD@MBIHGLJE@cannot?5dereference?5value?9initia@
CONST	SEGMENT
??_C@_0DD@MBIHGLJE@cannot?5dereference?5value?9initia@ DB 'cannot derefer'
	DB	'ence value-initialized list iterator', 00H	; `string'
CONST	ENDS
;	COMDAT ??_C@_1EK@OKKCFDJN@?$AA?$CC?$AAc?$AAa?$AAn?$AAn?$AAo?$AAt?$AA?5?$AAi?$AAn?$AAc?$AAr?$AAe?$AAm?$AAe@
CONST	SEGMENT
??_C@_1EK@OKKCFDJN@?$AA?$CC?$AAc?$AAa?$AAn?$AAn?$AAo?$AAt?$AA?5?$AAi?$AAn?$AAc?$AAr?$AAe?$AAm?$AAe@ DB '"'
	DB	00H, 'c', 00H, 'a', 00H, 'n', 00H, 'n', 00H, 'o', 00H, 't', 00H
	DB	' ', 00H, 'i', 00H, 'n', 00H, 'c', 00H, 'r', 00H, 'e', 00H, 'm'
	DB	00H, 'e', 00H, 'n', 00H, 't', 00H, ' ', 00H, 'e', 00H, 'n', 00H
	DB	'd', 00H, ' ', 00H, 'l', 00H, 'i', 00H, 's', 00H, 't', 00H, ' '
	DB	00H, 'i', 00H, 't', 00H, 'e', 00H, 'r', 00H, 'a', 00H, 't', 00H
	DB	'o', 00H, 'r', 00H, '"', 00H, 00H, 00H	; `string'
CONST	ENDS
;	COMDAT ??_C@_0CD@PMFMCEG@cannot?5increment?5end?5list?5itera@
CONST	SEGMENT
??_C@_0CD@PMFMCEG@cannot?5increment?5end?5list?5itera@ DB 'cannot increme'
	DB	'nt end list iterator', 00H			; `string'
CONST	ENDS
;	COMDAT ??_C@_1GG@JLMAGPNK@?$AA?$CC?$AAc?$AAa?$AAn?$AAn?$AAo?$AAt?$AA?5?$AAi?$AAn?$AAc?$AAr?$AAe?$AAm?$AAe@
CONST	SEGMENT
??_C@_1GG@JLMAGPNK@?$AA?$CC?$AAc?$AAa?$AAn?$AAn?$AAo?$AAt?$AA?5?$AAi?$AAn?$AAc?$AAr?$AAe?$AAm?$AAe@ DB '"'
	DB	00H, 'c', 00H, 'a', 00H, 'n', 00H, 'n', 00H, 'o', 00H, 't', 00H
	DB	' ', 00H, 'i', 00H, 'n', 00H, 'c', 00H, 'r', 00H, 'e', 00H, 'm'
	DB	00H, 'e', 00H, 'n', 00H, 't', 00H, ' ', 00H, 'v', 00H, 'a', 00H
	DB	'l', 00H, 'u', 00H, 'e', 00H, '-', 00H, 'i', 00H, 'n', 00H, 'i'
	DB	00H, 't', 00H, 'i', 00H, 'a', 00H, 'l', 00H, 'i', 00H, 'z', 00H
	DB	'e', 00H, 'd', 00H, ' ', 00H, 'l', 00H, 'i', 00H, 's', 00H, 't'
	DB	00H, ' ', 00H, 'i', 00H, 't', 00H, 'e', 00H, 'r', 00H, 'a', 00H
	DB	't', 00H, 'o', 00H, 'r', 00H, '"', 00H, 00H, 00H ; `string'
CONST	ENDS
;	COMDAT ??_C@_1OE@NJHNFAGK@?$AAs?$AAt?$AAd?$AA?3?$AA?3?$AA_?$AAL?$AAi?$AAs?$AAt?$AA_?$AAc?$AAo?$AAn?$AAs@
CONST	SEGMENT
??_C@_1OE@NJHNFAGK@?$AAs?$AAt?$AAd?$AA?3?$AA?3?$AA_?$AAL?$AAi?$AAs?$AAt?$AA_?$AAc?$AAo?$AAn?$AAs@ DB 's'
	DB	00H, 't', 00H, 'd', 00H, ':', 00H, ':', 00H, '_', 00H, 'L', 00H
	DB	'i', 00H, 's', 00H, 't', 00H, '_', 00H, 'c', 00H, 'o', 00H, 'n'
	DB	00H, 's', 00H, 't', 00H, '_', 00H, 'i', 00H, 't', 00H, 'e', 00H
	DB	'r', 00H, 'a', 00H, 't', 00H, 'o', 00H, 'r', 00H, '<', 00H, 'c'
	DB	00H, 'l', 00H, 'a', 00H, 's', 00H, 's', 00H, ' ', 00H, 's', 00H
	DB	't', 00H, 'd', 00H, ':', 00H, ':', 00H, '_', 00H, 'L', 00H, 'i'
	DB	00H, 's', 00H, 't', 00H, '_', 00H, 'v', 00H, 'a', 00H, 'l', 00H
	DB	'<', 00H, 's', 00H, 't', 00H, 'r', 00H, 'u', 00H, 'c', 00H, 't'
	DB	00H, ' ', 00H, 's', 00H, 't', 00H, 'd', 00H, ':', 00H, ':', 00H
	DB	'_', 00H, 'L', 00H, 'i', 00H, 's', 00H, 't', 00H, '_', 00H, 's'
	DB	00H, 'i', 00H, 'm', 00H, 'p', 00H, 'l', 00H, 'e', 00H, '_', 00H
	DB	't', 00H, 'y', 00H, 'p', 00H, 'e', 00H, 's', 00H, '<', 00H, 'c'
	DB	00H, 'l', 00H, 'a', 00H, 's', 00H, 's', 00H, ' ', 00H, 'R', 00H
	DB	'a', 00H, 'v', 00H, 'e', 00H, 'n', 00H, '_', 00H, 'B', 00H, 'o'
	DB	00H, 't', 00H, ' ', 00H, '*', 00H, '>', 00H, ' ', 00H, '>', 00H
	DB	' ', 00H, '>', 00H, ':', 00H, ':', 00H, 'o', 00H, 'p', 00H, 'e'
	DB	00H, 'r', 00H, 'a', 00H, 't', 00H, 'o', 00H, 'r', 00H, ' ', 00H
	DB	'+', 00H, '+', 00H, 00H, 00H			; `string'
CONST	ENDS
;	COMDAT ??_C@_1MK@OEMIBCNG@?$AAC?$AA?3?$AA?2?$AAP?$AAr?$AAo?$AAg?$AAr?$AAa?$AAm?$AA?5?$AAF?$AAi?$AAl?$AAe@
CONST	SEGMENT
??_C@_1MK@OEMIBCNG@?$AAC?$AA?3?$AA?2?$AAP?$AAr?$AAo?$AAg?$AAr?$AAa?$AAm?$AA?5?$AAF?$AAi?$AAl?$AAe@ DB 'C'
	DB	00H, ':', 00H, '\', 00H, 'P', 00H, 'r', 00H, 'o', 00H, 'g', 00H
	DB	'r', 00H, 'a', 00H, 'm', 00H, ' ', 00H, 'F', 00H, 'i', 00H, 'l'
	DB	00H, 'e', 00H, 's', 00H, ' ', 00H, '(', 00H, 'x', 00H, '8', 00H
	DB	'6', 00H, ')', 00H, '\', 00H, 'M', 00H, 'i', 00H, 'c', 00H, 'r'
	DB	00H, 'o', 00H, 's', 00H, 'o', 00H, 'f', 00H, 't', 00H, ' ', 00H
	DB	'V', 00H, 'i', 00H, 's', 00H, 'u', 00H, 'a', 00H, 'l', 00H, ' '
	DB	00H, 'S', 00H, 't', 00H, 'u', 00H, 'd', 00H, 'i', 00H, 'o', 00H
	DB	'\', 00H, '2', 00H, '0', 00H, '1', 00H, '9', 00H, '\', 00H, 'C'
	DB	00H, 'o', 00H, 'm', 00H, 'm', 00H, 'u', 00H, 'n', 00H, 'i', 00H
	DB	't', 00H, 'y', 00H, '\', 00H, 'V', 00H, 'C', 00H, '\', 00H, 'T'
	DB	00H, 'o', 00H, 'o', 00H, 'l', 00H, 's', 00H, '\', 00H, 'M', 00H
	DB	'S', 00H, 'V', 00H, 'C', 00H, '\', 00H, '1', 00H, '4', 00H, '.'
	DB	00H, '2', 00H, '1', 00H, '.', 00H, '2', 00H, '7', 00H, '7', 00H
	DB	'0', 00H, '2', 00H, '\', 00H, 'i', 00H, 'n', 00H, 'c', 00H, 'l'
	DB	00H, 'u', 00H, 'd', 00H, 'e', 00H, '\', 00H, 'l', 00H, 'i', 00H
	DB	's', 00H, 't', 00H, 00H, 00H			; `string'
CONST	ENDS
;	COMDAT ??_C@_0GF@EDKJAGDO@C?3?2Program?5Files?5?$CIx86?$CJ?2Microsof@
CONST	SEGMENT
??_C@_0GF@EDKJAGDO@C?3?2Program?5Files?5?$CIx86?$CJ?2Microsof@ DB 'C:\Pro'
	DB	'gram Files (x86)\Microsoft Visual Studio\2019\Community\VC\To'
	DB	'ols\MSVC\14.21.27702\include\list', 00H	; `string'
CONST	ENDS
;	COMDAT ??_C@_0DB@ENBCPNKO@cannot?5increment?5value?9initiali@
CONST	SEGMENT
??_C@_0DB@ENBCPNKO@cannot?5increment?5value?9initiali@ DB 'cannot increme'
	DB	'nt value-initialized list iterator', 00H	; `string'
CONST	ENDS
;	COMDAT ??_C@_1DG@PLBPCAEM@?$AA?$CC?$AAI?$AAT?$AAE?$AAR?$AAA?$AAT?$AAO?$AAR?$AA?5?$AAL?$AAI?$AAS?$AAT?$AA?5@
CONST	SEGMENT
??_C@_1DG@PLBPCAEM@?$AA?$CC?$AAI?$AAT?$AAE?$AAR?$AAA?$AAT?$AAO?$AAR?$AA?5?$AAL?$AAI?$AAS?$AAT?$AA?5@ DB '"'
	DB	00H, 'I', 00H, 'T', 00H, 'E', 00H, 'R', 00H, 'A', 00H, 'T', 00H
	DB	'O', 00H, 'R', 00H, ' ', 00H, 'L', 00H, 'I', 00H, 'S', 00H, 'T'
	DB	00H, ' ', 00H, 'C', 00H, 'O', 00H, 'R', 00H, 'R', 00H, 'U', 00H
	DB	'P', 00H, 'T', 00H, 'E', 00H, 'D', 00H, '!', 00H, '"', 00H, 00H
	DB	00H						; `string'
CONST	ENDS
;	COMDAT ??_C@_1EE@KLDMFDFL@?$AAs?$AAt?$AAd?$AA?3?$AA?3?$AA_?$AAI?$AAt?$AAe?$AAr?$AAa?$AAt?$AAo?$AAr?$AA_@
CONST	SEGMENT
??_C@_1EE@KLDMFDFL@?$AAs?$AAt?$AAd?$AA?3?$AA?3?$AA_?$AAI?$AAt?$AAe?$AAr?$AAa?$AAt?$AAo?$AAr?$AA_@ DB 's'
	DB	00H, 't', 00H, 'd', 00H, ':', 00H, ':', 00H, '_', 00H, 'I', 00H
	DB	't', 00H, 'e', 00H, 'r', 00H, 'a', 00H, 't', 00H, 'o', 00H, 'r'
	DB	00H, '_', 00H, 'b', 00H, 'a', 00H, 's', 00H, 'e', 00H, '1', 00H
	DB	'2', 00H, ':', 00H, ':', 00H, '_', 00H, 'O', 00H, 'r', 00H, 'p'
	DB	00H, 'h', 00H, 'a', 00H, 'n', 00H, '_', 00H, 'm', 00H, 'e', 00H
	DB	00H, 00H					; `string'
CONST	ENDS
;	COMDAT ??_C@_0BJ@LFDBABJJ@ITERATOR?5LIST?5CORRUPTED?$CB@
CONST	SEGMENT
??_C@_0BJ@LFDBABJJ@ITERATOR?5LIST?5CORRUPTED?$CB@ DB 'ITERATOR LIST CORRU'
	DB	'PTED!', 00H					; `string'
CONST	ENDS
;	COMDAT ??_C@_1CG@JNLFBNGN@?$AA?$CC?$AAi?$AAn?$AAv?$AAa?$AAl?$AAi?$AAd?$AA?5?$AAa?$AAr?$AAg?$AAu?$AAm?$AAe@
CONST	SEGMENT
??_C@_1CG@JNLFBNGN@?$AA?$CC?$AAi?$AAn?$AAv?$AAa?$AAl?$AAi?$AAd?$AA?5?$AAa?$AAr?$AAg?$AAu?$AAm?$AAe@ DB '"'
	DB	00H, 'i', 00H, 'n', 00H, 'v', 00H, 'a', 00H, 'l', 00H, 'i', 00H
	DB	'd', 00H, ' ', 00H, 'a', 00H, 'r', 00H, 'g', 00H, 'u', 00H, 'm'
	DB	00H, 'e', 00H, 'n', 00H, 't', 00H, '"', 00H, 00H, 00H ; `string'
CONST	ENDS
;	COMDAT ??_C@_1EK@NIFDJFDG@?$AAs?$AAt?$AAd?$AA?3?$AA?3?$AA_?$AAA?$AAd?$AAj?$AAu?$AAs?$AAt?$AA_?$AAm?$AAa@
CONST	SEGMENT
??_C@_1EK@NIFDJFDG@?$AAs?$AAt?$AAd?$AA?3?$AA?3?$AA_?$AAA?$AAd?$AAj?$AAu?$AAs?$AAt?$AA_?$AAm?$AAa@ DB 's'
	DB	00H, 't', 00H, 'd', 00H, ':', 00H, ':', 00H, '_', 00H, 'A', 00H
	DB	'd', 00H, 'j', 00H, 'u', 00H, 's', 00H, 't', 00H, '_', 00H, 'm'
	DB	00H, 'a', 00H, 'n', 00H, 'u', 00H, 'a', 00H, 'l', 00H, 'l', 00H
	DB	'y', 00H, '_', 00H, 'v', 00H, 'e', 00H, 'c', 00H, 't', 00H, 'o'
	DB	00H, 'r', 00H, '_', 00H, 'a', 00H, 'l', 00H, 'i', 00H, 'g', 00H
	DB	'n', 00H, 'e', 00H, 'd', 00H, 00H, 00H	; `string'
CONST	ENDS
;	COMDAT ??_C@_1NC@PMLIAFCM@?$AAC?$AA?3?$AA?2?$AAP?$AAr?$AAo?$AAg?$AAr?$AAa?$AAm?$AA?5?$AAF?$AAi?$AAl?$AAe@
CONST	SEGMENT
??_C@_1NC@PMLIAFCM@?$AAC?$AA?3?$AA?2?$AAP?$AAr?$AAo?$AAg?$AAr?$AAa?$AAm?$AA?5?$AAF?$AAi?$AAl?$AAe@ DB 'C'
	DB	00H, ':', 00H, '\', 00H, 'P', 00H, 'r', 00H, 'o', 00H, 'g', 00H
	DB	'r', 00H, 'a', 00H, 'm', 00H, ' ', 00H, 'F', 00H, 'i', 00H, 'l'
	DB	00H, 'e', 00H, 's', 00H, ' ', 00H, '(', 00H, 'x', 00H, '8', 00H
	DB	'6', 00H, ')', 00H, '\', 00H, 'M', 00H, 'i', 00H, 'c', 00H, 'r'
	DB	00H, 'o', 00H, 's', 00H, 'o', 00H, 'f', 00H, 't', 00H, ' ', 00H
	DB	'V', 00H, 'i', 00H, 's', 00H, 'u', 00H, 'a', 00H, 'l', 00H, ' '
	DB	00H, 'S', 00H, 't', 00H, 'u', 00H, 'd', 00H, 'i', 00H, 'o', 00H
	DB	'\', 00H, '2', 00H, '0', 00H, '1', 00H, '9', 00H, '\', 00H, 'C'
	DB	00H, 'o', 00H, 'm', 00H, 'm', 00H, 'u', 00H, 'n', 00H, 'i', 00H
	DB	't', 00H, 'y', 00H, '\', 00H, 'V', 00H, 'C', 00H, '\', 00H, 'T'
	DB	00H, 'o', 00H, 'o', 00H, 'l', 00H, 's', 00H, '\', 00H, 'M', 00H
	DB	'S', 00H, 'V', 00H, 'C', 00H, '\', 00H, '1', 00H, '4', 00H, '.'
	DB	00H, '2', 00H, '1', 00H, '.', 00H, '2', 00H, '7', 00H, '7', 00H
	DB	'0', 00H, '2', 00H, '\', 00H, 'i', 00H, 'n', 00H, 'c', 00H, 'l'
	DB	00H, 'u', 00H, 'd', 00H, 'e', 00H, '\', 00H, 'x', 00H, 'm', 00H
	DB	'e', 00H, 'm', 00H, 'o', 00H, 'r', 00H, 'y', 00H, '0', 00H, 00H
	DB	00H						; `string'
CONST	ENDS
;	COMDAT ??_C@_0GJ@IPOKOOCN@C?3?2Program?5Files?5?$CIx86?$CJ?2Microsof@
CONST	SEGMENT
??_C@_0GJ@IPOKOOCN@C?3?2Program?5Files?5?$CIx86?$CJ?2Microsof@ DB 'C:\Pro'
	DB	'gram Files (x86)\Microsoft Visual Studio\2019\Community\VC\To'
	DB	'ols\MSVC\14.21.27702\include\xmemory0', 00H	; `string'
CONST	ENDS
;	COMDAT ??_C@_02DKCKIIND@?$CFs@
CONST	SEGMENT
??_C@_02DKCKIIND@?$CFs@ DB '%s', 00H			; `string'
CONST	ENDS
;	COMDAT ??_C@_0BB@FCMFBGOM@invalid?5argument@
CONST	SEGMENT
??_C@_0BB@FCMFBGOM@invalid?5argument@ DB 'invalid argument', 00H ; `string'
CONST	ENDS
;	COMDAT xdata$x
xdata$x	SEGMENT
__ehfuncinfo$??$_Freenode@V?$allocator@U?$_List_node@PAVRaven_Bot@@PAX@std@@@std@@@?$_List_node@PAVRaven_Bot@@PAX@std@@SAXAAV?$allocator@U?$_List_node@PAVRaven_Bot@@PAX@std@@@1@PAU01@@Z DD 019930522H
	DD	00H
	DD	00H
	DD	2 DUP(00H)
	DD	2 DUP(00H)
	DD	00H
	DD	05H
xdata$x	ENDS
;	COMDAT xdata$x
xdata$x	SEGMENT
__ehfuncinfo$??$_Deallocate_plain@V?$allocator@U_Container_proxy@std@@@std@@@std@@YAXAAV?$allocator@U_Container_proxy@std@@@0@QAU_Container_proxy@0@@Z DD 019930522H
	DD	00H
	DD	00H
	DD	2 DUP(00H)
	DD	2 DUP(00H)
	DD	00H
	DD	05H
xdata$x	ENDS
;	COMDAT xdata$x
xdata$x	SEGMENT
__ehfuncinfo$??$_Deallocate@$07$0A@@std@@YAXPAXI@Z DD 019930522H
	DD	00H
	DD	00H
	DD	2 DUP(00H)
	DD	2 DUP(00H)
	DD	00H
	DD	05H
xdata$x	ENDS
;	COMDAT xdata$x
xdata$x	SEGMENT
__ehfuncinfo$??$_Freenode0@V?$allocator@U?$_List_node@PAVRaven_Bot@@PAX@std@@@std@@@?$_List_node@PAVRaven_Bot@@PAX@std@@SAXAAV?$allocator@U?$_List_node@PAVRaven_Bot@@PAX@std@@@1@PAU01@@Z DD 019930522H
	DD	00H
	DD	00H
	DD	2 DUP(00H)
	DD	2 DUP(00H)
	DD	00H
	DD	05H
xdata$x	ENDS
;	COMDAT xdata$x
xdata$x	SEGMENT
__ehfuncinfo$??$_Delete_plain@V?$allocator@U_Container_proxy@std@@@std@@@std@@YAXAAV?$allocator@U_Container_proxy@std@@@0@QAU_Container_proxy@0@@Z DD 019930522H
	DD	00H
	DD	00H
	DD	2 DUP(00H)
	DD	2 DUP(00H)
	DD	00H
	DD	05H
xdata$x	ENDS
;	COMDAT xdata$x
xdata$x	SEGMENT
__unwindtable$?_Alloc_sentinel_and_proxy@?$list@PAVRaven_Bot@@V?$allocator@PAVRaven_Bot@@@std@@@std@@AAEXXZ DD 0ffffffffH
	DD	FLAT:__unwindfunclet$?_Alloc_sentinel_and_proxy@?$list@PAVRaven_Bot@@V?$allocator@PAVRaven_Bot@@@std@@@std@@AAEXXZ$0
__ehfuncinfo$?_Alloc_sentinel_and_proxy@?$list@PAVRaven_Bot@@V?$allocator@PAVRaven_Bot@@@std@@@std@@AAEXXZ DD 019930522H
	DD	01H
	DD	FLAT:__unwindtable$?_Alloc_sentinel_and_proxy@?$list@PAVRaven_Bot@@V?$allocator@PAVRaven_Bot@@@std@@@std@@AAEXXZ
	DD	2 DUP(00H)
	DD	2 DUP(00H)
	DD	00H
	DD	01H
xdata$x	ENDS
;	COMDAT xdata$x
xdata$x	SEGMENT
__ehfuncinfo$?_Orphan_non_end@?$list@PAVRaven_Bot@@V?$allocator@PAVRaven_Bot@@@std@@@std@@AAEXXZ DD 019930522H
	DD	00H
	DD	00H
	DD	2 DUP(00H)
	DD	2 DUP(00H)
	DD	00H
	DD	05H
xdata$x	ENDS
;	COMDAT xdata$x
xdata$x	SEGMENT
__ehfuncinfo$?end@?$list@PAVRaven_Bot@@V?$allocator@PAVRaven_Bot@@@std@@@std@@QAE?AV?$_List_iterator@V?$_List_val@U?$_List_simple_types@PAVRaven_Bot@@@std@@@std@@@2@XZ DD 019930522H
	DD	00H
	DD	00H
	DD	2 DUP(00H)
	DD	2 DUP(00H)
	DD	00H
	DD	05H
xdata$x	ENDS
;	COMDAT xdata$x
xdata$x	SEGMENT
__ehfuncinfo$?begin@?$list@PAVRaven_Bot@@V?$allocator@PAVRaven_Bot@@@std@@@std@@QAE?AV?$_List_iterator@V?$_List_val@U?$_List_simple_types@PAVRaven_Bot@@@std@@@std@@@2@XZ DD 019930522H
	DD	00H
	DD	00H
	DD	2 DUP(00H)
	DD	2 DUP(00H)
	DD	00H
	DD	05H
xdata$x	ENDS
xdata$x	SEGMENT
__unwindtable$?Update@Raven_TargetingSystem@@QAEXXZ DD 0ffffffffH
	DD	FLAT:__unwindfunclet$?Update@Raven_TargetingSystem@@QAEXXZ$0
	DD	00H
	DD	FLAT:__unwindfunclet$?Update@Raven_TargetingSystem@@QAEXXZ$3
	DD	01H
	DD	FLAT:__unwindfunclet$?Update@Raven_TargetingSystem@@QAEXXZ$4
__ehfuncinfo$?Update@Raven_TargetingSystem@@QAEXXZ DD 019930522H
	DD	03H
	DD	FLAT:__unwindtable$?Update@Raven_TargetingSystem@@QAEXXZ
	DD	2 DUP(00H)
	DD	2 DUP(00H)
	DD	00H
	DD	01H
xdata$x	ENDS
;	COMDAT xdata$x
xdata$x	SEGMENT
__ehfuncinfo$?_Adopt@_Iterator_base12@std@@QAEXPBU_Container_base12@2@@Z DD 019930522H
	DD	00H
	DD	00H
	DD	2 DUP(00H)
	DD	2 DUP(00H)
	DD	00H
	DD	05H
xdata$x	ENDS
;	COMDAT xdata$x
xdata$x	SEGMENT
__ehfuncinfo$??1_Iterator_base12@std@@QAE@XZ DD 019930522H
	DD	00H
	DD	00H
	DD	2 DUP(00H)
	DD	2 DUP(00H)
	DD	00H
	DD	05H
xdata$x	ENDS
;	COMDAT xdata$x
xdata$x	SEGMENT
__ehfuncinfo$??4_Iterator_base12@std@@QAEAAU01@ABU01@@Z DD 019930522H
	DD	00H
	DD	00H
	DD	2 DUP(00H)
	DD	2 DUP(00H)
	DD	00H
	DD	05H
xdata$x	ENDS
;	COMDAT xdata$x
xdata$x	SEGMENT
__ehfuncinfo$?_Swap_proxy_and_iterators@_Container_base12@std@@QAEXAAU12@@Z DD 019930522H
	DD	00H
	DD	00H
	DD	2 DUP(00H)
	DD	2 DUP(00H)
	DD	00H
	DD	05H
xdata$x	ENDS
;	COMDAT xdata$x
xdata$x	SEGMENT
__ehfuncinfo$?_Orphan_all@_Container_base12@std@@QAEXXZ DD 019930522H
	DD	00H
	DD	00H
	DD	2 DUP(00H)
	DD	2 DUP(00H)
	DD	00H
	DD	05H
xdata$x	ENDS
CRT$XCU	SEGMENT
?MaxDouble$initializer$@@3P6AXXZA DD FLAT:??__EMaxDouble@@YAXXZ ; MaxDouble$initializer$
CRT$XCU	ENDS
CRT$XCU	SEGMENT
?MinDouble$initializer$@@3P6AXXZA DD FLAT:??__EMinDouble@@YAXXZ ; MinDouble$initializer$
CRT$XCU	ENDS
CRT$XCU	SEGMENT
?MaxFloat$initializer$@@3P6AXXZA DD FLAT:??__EMaxFloat@@YAXXZ ; MaxFloat$initializer$
CRT$XCU	ENDS
CRT$XCU	SEGMENT
?MinFloat$initializer$@@3P6AXXZA DD FLAT:??__EMinFloat@@YAXXZ ; MinFloat$initializer$
CRT$XCU	ENDS
; Function compile flags: /Odtp /RTCsu
; File C:\Program Files (x86)\Microsoft Visual Studio\2019\Community\VC\Tools\MSVC\14.21.27702\include\xmemory0
;	COMDAT ??$destroy@PAVRaven_Bot@@@?$_Default_allocator_traits@V?$allocator@U?$_List_node@PAVRaven_Bot@@PAX@std@@@std@@@std@@SAXAAV?$allocator@U?$_List_node@PAVRaven_Bot@@PAX@std@@@1@QAPAVRaven_Bot@@@Z
_TEXT	SEGMENT
___formal$ = 8						; size = 4
__Ptr$ = 12						; size = 4
??$destroy@PAVRaven_Bot@@@?$_Default_allocator_traits@V?$allocator@U?$_List_node@PAVRaven_Bot@@PAX@std@@@std@@@std@@SAXAAV?$allocator@U?$_List_node@PAVRaven_Bot@@PAX@std@@@1@QAPAVRaven_Bot@@@Z PROC ; std::_Default_allocator_traits<std::allocator<std::_List_node<Raven_Bot *,void *> > >::destroy<Raven_Bot *>, COMDAT

; 824  :     static void destroy(_Alloc&, _Uty* const _Ptr) { // destroy object at _Ptr

	push	ebp
	mov	ebp, esp

; 825  :         _Ptr->~_Uty();
; 826  :     }

	pop	ebp
	ret	0
??$destroy@PAVRaven_Bot@@@?$_Default_allocator_traits@V?$allocator@U?$_List_node@PAVRaven_Bot@@PAX@std@@@std@@@std@@SAXAAV?$allocator@U?$_List_node@PAVRaven_Bot@@PAX@std@@@1@QAPAVRaven_Bot@@@Z ENDP ; std::_Default_allocator_traits<std::allocator<std::_List_node<Raven_Bot *,void *> > >::destroy<Raven_Bot *>
_TEXT	ENDS
; Function compile flags: /Odtp /RTCsu
; File C:\Program Files (x86)\Microsoft Visual Studio\2019\Community\VC\Tools\MSVC\14.21.27702\include\xstddef
;	COMDAT ??$addressof@PAVRaven_Bot@@@std@@YAPAPAVRaven_Bot@@AAPAV1@@Z
_TEXT	SEGMENT
__Val$ = 8						; size = 4
??$addressof@PAVRaven_Bot@@@std@@YAPAPAVRaven_Bot@@AAPAV1@@Z PROC ; std::addressof<Raven_Bot *>, COMDAT

; 280  : _NODISCARD constexpr _Ty* addressof(_Ty& _Val) noexcept { // return address of _Val

	push	ebp
	mov	ebp, esp

; 281  :     return __builtin_addressof(_Val);

	mov	eax, DWORD PTR __Val$[ebp]

; 282  : }

	pop	ebp
	ret	0
??$addressof@PAVRaven_Bot@@@std@@YAPAPAVRaven_Bot@@AAPAV1@@Z ENDP ; std::addressof<Raven_Bot *>
_TEXT	ENDS
; Function compile flags: /Odtp /RTCsu
; File C:\Program Files (x86)\Microsoft Visual Studio\2019\Community\VC\Tools\MSVC\14.21.27702\include\type_traits
;	COMDAT ??$move@AAPAU?$_List_node@PAVRaven_Bot@@PAX@std@@@std@@YA$$QAPAU?$_List_node@PAVRaven_Bot@@PAX@0@AAPAU10@@Z
_TEXT	SEGMENT
__Arg$ = 8						; size = 4
??$move@AAPAU?$_List_node@PAVRaven_Bot@@PAX@std@@@std@@YA$$QAPAU?$_List_node@PAVRaven_Bot@@PAX@0@AAPAU10@@Z PROC ; std::move<std::_List_node<Raven_Bot *,void *> * &>, COMDAT

; 1313 : _NODISCARD constexpr remove_reference_t<_Ty>&& move(_Ty&& _Arg) noexcept { // forward _Arg as movable

	push	ebp
	mov	ebp, esp

; 1314 :     return static_cast<remove_reference_t<_Ty>&&>(_Arg);

	mov	eax, DWORD PTR __Arg$[ebp]

; 1315 : }

	pop	ebp
	ret	0
??$move@AAPAU?$_List_node@PAVRaven_Bot@@PAX@std@@@std@@YA$$QAPAU?$_List_node@PAVRaven_Bot@@PAX@0@AAPAU10@@Z ENDP ; std::move<std::_List_node<Raven_Bot *,void *> * &>
_TEXT	ENDS
; Function compile flags: /Odtp /RTCsu
; File C:\Program Files (x86)\Microsoft Visual Studio\2019\Community\VC\Tools\MSVC\14.21.27702\include\type_traits
;	COMDAT ??$move@AAI@std@@YA$$QAIAAI@Z
_TEXT	SEGMENT
__Arg$ = 8						; size = 4
??$move@AAI@std@@YA$$QAIAAI@Z PROC			; std::move<unsigned int &>, COMDAT

; 1313 : _NODISCARD constexpr remove_reference_t<_Ty>&& move(_Ty&& _Arg) noexcept { // forward _Arg as movable

	push	ebp
	mov	ebp, esp

; 1314 :     return static_cast<remove_reference_t<_Ty>&&>(_Arg);

	mov	eax, DWORD PTR __Arg$[ebp]

; 1315 : }

	pop	ebp
	ret	0
??$move@AAI@std@@YA$$QAIAAI@Z ENDP			; std::move<unsigned int &>
_TEXT	ENDS
; Function compile flags: /Odtp /RTCsu
; File C:\Program Files (x86)\Microsoft Visual Studio\2019\Community\VC\Tools\MSVC\14.21.27702\include\xmemory0
;	COMDAT ??$_Allocate_manually_vector_aligned@U_Default_allocate_traits@std@@@std@@YAPAXI@Z
_TEXT	SEGMENT
__Ptr$ = -12						; size = 4
__Ptr_container$ = -8					; size = 4
__Block_size$ = -4					; size = 4
__Bytes$ = 8						; size = 4
??$_Allocate_manually_vector_aligned@U_Default_allocate_traits@std@@@std@@YAPAXI@Z PROC ; std::_Allocate_manually_vector_aligned<std::_Default_allocate_traits>, COMDAT

; 87   :     const size_t _Bytes) { // allocate _Bytes manually aligned to at least _Big_allocation_alignment

	push	ebp
	mov	ebp, esp
	sub	esp, 12					; 0000000cH
	mov	DWORD PTR [ebp-12], -858993460		; ccccccccH
	mov	DWORD PTR [ebp-8], -858993460		; ccccccccH
	mov	DWORD PTR [ebp-4], -858993460		; ccccccccH

; 88   :     size_t _Block_size = _Non_user_size + _Bytes;

	mov	eax, DWORD PTR __Bytes$[ebp]
	add	eax, 39					; 00000027H
	mov	DWORD PTR __Block_size$[ebp], eax

; 89   :     if (_Block_size <= _Bytes) { // add overflow, try allocating all of memory and assume the

	mov	ecx, DWORD PTR __Block_size$[ebp]
	cmp	ecx, DWORD PTR __Bytes$[ebp]
	ja	SHORT $LN8@Allocate_m

; 90   :                                  // allocation function will throw bad_alloc
; 91   :         _Block_size = static_cast<size_t>(-1);

	mov	DWORD PTR __Block_size$[ebp], -1
$LN8@Allocate_m:

; 92   :     }
; 93   : 
; 94   :     const uintptr_t _Ptr_container = reinterpret_cast<uintptr_t>(_Traits::_Allocate(_Block_size));

	mov	edx, DWORD PTR __Block_size$[ebp]
	push	edx
	call	?_Allocate@_Default_allocate_traits@std@@SAPAXI@Z ; std::_Default_allocate_traits::_Allocate
	add	esp, 4
	mov	DWORD PTR __Ptr_container$[ebp], eax
$LN4@Allocate_m:

; 95   :     _STL_VERIFY(_Ptr_container != 0, "invalid argument"); // validate even in release since we're doing p[-1]

	cmp	DWORD PTR __Ptr_container$[ebp], 0
	je	SHORT $LN7@Allocate_m
	jmp	SHORT $LN2@Allocate_m
$LN7@Allocate_m:
	push	OFFSET ??_C@_0BB@FCMFBGOM@invalid?5argument@
	push	OFFSET ??_C@_02DKCKIIND@?$CFs@
	push	0
	push	95					; 0000005fH
	push	OFFSET ??_C@_0GJ@IPOKOOCN@C?3?2Program?5Files?5?$CIx86?$CJ?2Microsof@
	push	2
	call	__CrtDbgReport
	add	esp, 24					; 00000018H
	cmp	eax, 1
	jne	SHORT $LN12@Allocate_m
	int	3
$LN12@Allocate_m:
	push	0
	push	95					; 0000005fH
	push	OFFSET ??_C@_1NC@PMLIAFCM@?$AAC?$AA?3?$AA?2?$AAP?$AAr?$AAo?$AAg?$AAr?$AAa?$AAm?$AA?5?$AAF?$AAi?$AAl?$AAe@
	push	OFFSET ??_C@_1EO@GFNCMDLA@?$AAs?$AAt?$AAd?$AA?3?$AA?3?$AA_?$AAA?$AAl?$AAl?$AAo?$AAc?$AAa?$AAt?$AAe?$AA_@
	push	OFFSET ??_C@_1CG@JNLFBNGN@?$AA?$CC?$AAi?$AAn?$AAv?$AAa?$AAl?$AAi?$AAd?$AA?5?$AAa?$AAr?$AAg?$AAu?$AAm?$AAe@
	call	__invalid_parameter
	add	esp, 20					; 00000014H
	xor	ecx, ecx
	jne	SHORT $LN7@Allocate_m
$LN2@Allocate_m:
	xor	edx, edx
	jne	SHORT $LN4@Allocate_m

; 96   :     void* const _Ptr = reinterpret_cast<void*>((_Ptr_container + _Non_user_size) & ~(_Big_allocation_alignment - 1));

	mov	eax, DWORD PTR __Ptr_container$[ebp]
	add	eax, 39					; 00000027H
	and	eax, -32				; ffffffe0H
	mov	DWORD PTR __Ptr$[ebp], eax

; 97   :     static_cast<uintptr_t*>(_Ptr)[-1] = _Ptr_container;

	mov	ecx, 4
	imul	edx, ecx, -1
	mov	eax, DWORD PTR __Ptr$[ebp]
	mov	ecx, DWORD PTR __Ptr_container$[ebp]
	mov	DWORD PTR [eax+edx], ecx

; 98   : 
; 99   : #ifdef _DEBUG
; 100  :     static_cast<uintptr_t*>(_Ptr)[-2] = _Big_allocation_sentinel;

	mov	edx, 4
	imul	eax, edx, -2
	mov	ecx, DWORD PTR __Ptr$[ebp]
	mov	DWORD PTR [ecx+eax], -84215046		; fafafafaH

; 101  : #endif // _DEBUG
; 102  :     return _Ptr;

	mov	eax, DWORD PTR __Ptr$[ebp]

; 103  : }

	add	esp, 12					; 0000000cH
	cmp	ebp, esp
	call	__RTC_CheckEsp
	mov	esp, ebp
	pop	ebp
	ret	0
??$_Allocate_manually_vector_aligned@U_Default_allocate_traits@std@@@std@@YAPAXI@Z ENDP ; std::_Allocate_manually_vector_aligned<std::_Default_allocate_traits>
_TEXT	ENDS
; Function compile flags: /Odtp /RTCsu
; File C:\Program Files (x86)\Microsoft Visual Studio\2019\Community\VC\Tools\MSVC\14.21.27702\include\type_traits
;	COMDAT ??$move@AAV?$allocator@U?$_List_node@PAVRaven_Bot@@PAX@std@@@std@@@std@@YA$$QAV?$allocator@U?$_List_node@PAVRaven_Bot@@PAX@std@@@0@AAV10@@Z
_TEXT	SEGMENT
__Arg$ = 8						; size = 4
??$move@AAV?$allocator@U?$_List_node@PAVRaven_Bot@@PAX@std@@@std@@@std@@YA$$QAV?$allocator@U?$_List_node@PAVRaven_Bot@@PAX@std@@@0@AAV10@@Z PROC ; std::move<std::allocator<std::_List_node<Raven_Bot *,void *> > &>, COMDAT

; 1313 : _NODISCARD constexpr remove_reference_t<_Ty>&& move(_Ty&& _Arg) noexcept { // forward _Arg as movable

	push	ebp
	mov	ebp, esp

; 1314 :     return static_cast<remove_reference_t<_Ty>&&>(_Arg);

	mov	eax, DWORD PTR __Arg$[ebp]

; 1315 : }

	pop	ebp
	ret	0
??$move@AAV?$allocator@U?$_List_node@PAVRaven_Bot@@PAX@std@@@std@@@std@@YA$$QAV?$allocator@U?$_List_node@PAVRaven_Bot@@PAX@std@@@0@AAV10@@Z ENDP ; std::move<std::allocator<std::_List_node<Raven_Bot *,void *> > &>
_TEXT	ENDS
; Function compile flags: /Odtp /RTCsu
; File C:\Program Files (x86)\Microsoft Visual Studio\2019\Community\VC\Tools\MSVC\14.21.27702\include\xmemory0
;	COMDAT ??$destroy@PAU?$_List_node@PAVRaven_Bot@@PAX@std@@@?$_Default_allocator_traits@V?$allocator@U?$_List_node@PAVRaven_Bot@@PAX@std@@@std@@@std@@SAXAAV?$allocator@U?$_List_node@PAVRaven_Bot@@PAX@std@@@1@QAPAU?$_List_node@PAVRaven_Bot@@PAX@1@@Z
_TEXT	SEGMENT
___formal$ = 8						; size = 4
__Ptr$ = 12						; size = 4
??$destroy@PAU?$_List_node@PAVRaven_Bot@@PAX@std@@@?$_Default_allocator_traits@V?$allocator@U?$_List_node@PAVRaven_Bot@@PAX@std@@@std@@@std@@SAXAAV?$allocator@U?$_List_node@PAVRaven_Bot@@PAX@std@@@1@QAPAU?$_List_node@PAVRaven_Bot@@PAX@1@@Z PROC ; std::_Default_allocator_traits<std::allocator<std::_List_node<Raven_Bot *,void *> > >::destroy<std::_List_node<Raven_Bot *,void *> *>, COMDAT

; 824  :     static void destroy(_Alloc&, _Uty* const _Ptr) { // destroy object at _Ptr

	push	ebp
	mov	ebp, esp

; 825  :         _Ptr->~_Uty();
; 826  :     }

	pop	ebp
	ret	0
??$destroy@PAU?$_List_node@PAVRaven_Bot@@PAX@std@@@?$_Default_allocator_traits@V?$allocator@U?$_List_node@PAVRaven_Bot@@PAX@std@@@std@@@std@@SAXAAV?$allocator@U?$_List_node@PAVRaven_Bot@@PAX@std@@@1@QAPAU?$_List_node@PAVRaven_Bot@@PAX@1@@Z ENDP ; std::_Default_allocator_traits<std::allocator<std::_List_node<Raven_Bot *,void *> > >::destroy<std::_List_node<Raven_Bot *,void *> *>
_TEXT	ENDS
; Function compile flags: /Odtp /RTCsu
; File C:\Program Files (x86)\Microsoft Visual Studio\2019\Community\VC\Tools\MSVC\14.21.27702\include\list
;	COMDAT ??$_Freenode@V?$allocator@U?$_List_node@PAVRaven_Bot@@PAX@std@@@std@@@?$_List_node@PAVRaven_Bot@@PAX@std@@SAXAAV?$allocator@U?$_List_node@PAVRaven_Bot@@PAX@std@@@1@PAU01@@Z
_TEXT	SEGMENT
__$EHRec$ = -12						; size = 12
__Al$ = 8						; size = 4
__Ptr$ = 12						; size = 4
??$_Freenode@V?$allocator@U?$_List_node@PAVRaven_Bot@@PAX@std@@@std@@@?$_List_node@PAVRaven_Bot@@PAX@std@@SAXAAV?$allocator@U?$_List_node@PAVRaven_Bot@@PAX@std@@@1@PAU01@@Z PROC ; std::_List_node<Raven_Bot *,void *>::_Freenode<std::allocator<std::_List_node<Raven_Bot *,void *> > >, COMDAT

; 332  :     static void _Freenode(_Alnode& _Al, _Nodeptr _Ptr) noexcept { // destroy all members in _Ptr and deallocate with _Al

	push	ebp
	mov	ebp, esp
	push	-1
	push	__ehhandler$??$_Freenode@V?$allocator@U?$_List_node@PAVRaven_Bot@@PAX@std@@@std@@@?$_List_node@PAVRaven_Bot@@PAX@std@@SAXAAV?$allocator@U?$_List_node@PAVRaven_Bot@@PAX@std@@@1@PAU01@@Z
	mov	eax, DWORD PTR fs:0
	push	eax
	mov	eax, DWORD PTR ___security_cookie
	xor	eax, ebp
	push	eax
	lea	eax, DWORD PTR __$EHRec$[ebp]
	mov	DWORD PTR fs:0, eax

; 333  :         using _Alnode_traits = allocator_traits<_Alnode>;
; 334  :         _Alnode_traits::destroy(_Al, _STD addressof(_Ptr->_Myval));

	mov	eax, DWORD PTR __Ptr$[ebp]
	add	eax, 8
	push	eax
	call	??$addressof@PAVRaven_Bot@@@std@@YAPAPAVRaven_Bot@@AAPAV1@@Z ; std::addressof<Raven_Bot *>
	add	esp, 4
	push	eax
	mov	ecx, DWORD PTR __Al$[ebp]
	push	ecx
	call	??$destroy@PAVRaven_Bot@@@?$_Default_allocator_traits@V?$allocator@U?$_List_node@PAVRaven_Bot@@PAX@std@@@std@@@std@@SAXAAV?$allocator@U?$_List_node@PAVRaven_Bot@@PAX@std@@@1@QAPAVRaven_Bot@@@Z ; std::_Default_allocator_traits<std::allocator<std::_List_node<Raven_Bot *,void *> > >::destroy<Raven_Bot *>
	add	esp, 8

; 335  :         _Freenode0(_Al, _Ptr);

	mov	edx, DWORD PTR __Ptr$[ebp]
	push	edx
	mov	eax, DWORD PTR __Al$[ebp]
	push	eax
	call	??$_Freenode0@V?$allocator@U?$_List_node@PAVRaven_Bot@@PAX@std@@@std@@@?$_List_node@PAVRaven_Bot@@PAX@std@@SAXAAV?$allocator@U?$_List_node@PAVRaven_Bot@@PAX@std@@@1@PAU01@@Z ; std::_List_node<Raven_Bot *,void *>::_Freenode0<std::allocator<std::_List_node<Raven_Bot *,void *> > >
	add	esp, 8

; 336  :     }

	mov	ecx, DWORD PTR __$EHRec$[ebp]
	mov	DWORD PTR fs:0, ecx
	pop	ecx
	add	esp, 12					; 0000000cH
	cmp	ebp, esp
	call	__RTC_CheckEsp
	mov	esp, ebp
	pop	ebp
	ret	0
_TEXT	ENDS
;	COMDAT text$x
text$x	SEGMENT
__ehhandler$??$_Freenode@V?$allocator@U?$_List_node@PAVRaven_Bot@@PAX@std@@@std@@@?$_List_node@PAVRaven_Bot@@PAX@std@@SAXAAV?$allocator@U?$_List_node@PAVRaven_Bot@@PAX@std@@@1@PAU01@@Z:
	mov	edx, DWORD PTR [esp+8]
	lea	eax, DWORD PTR [edx+12]
	mov	ecx, DWORD PTR [edx-4]
	xor	ecx, eax
	call	@__security_check_cookie@4
	mov	eax, OFFSET __ehfuncinfo$??$_Freenode@V?$allocator@U?$_List_node@PAVRaven_Bot@@PAX@std@@@std@@@?$_List_node@PAVRaven_Bot@@PAX@std@@SAXAAV?$allocator@U?$_List_node@PAVRaven_Bot@@PAX@std@@@1@PAU01@@Z
	jmp	___CxxFrameHandler3
text$x	ENDS
??$_Freenode@V?$allocator@U?$_List_node@PAVRaven_Bot@@PAX@std@@@std@@@?$_List_node@PAVRaven_Bot@@PAX@std@@SAXAAV?$allocator@U?$_List_node@PAVRaven_Bot@@PAX@std@@@1@PAU01@@Z ENDP ; std::_List_node<Raven_Bot *,void *>::_Freenode<std::allocator<std::_List_node<Raven_Bot *,void *> > >
; Function compile flags: /Odtp /RTCsu
; File C:\Program Files (x86)\Microsoft Visual Studio\2019\Community\VC\Tools\MSVC\14.21.27702\include\type_traits
;	COMDAT ??$forward@AAPAU?$_List_node@PAVRaven_Bot@@PAX@std@@@std@@YAAAPAU?$_List_node@PAVRaven_Bot@@PAX@0@AAPAU10@@Z
_TEXT	SEGMENT
__Arg$ = 8						; size = 4
??$forward@AAPAU?$_List_node@PAVRaven_Bot@@PAX@std@@@std@@YAAAPAU?$_List_node@PAVRaven_Bot@@PAX@0@AAPAU10@@Z PROC ; std::forward<std::_List_node<Raven_Bot *,void *> * &>, COMDAT

; 1301 :     remove_reference_t<_Ty>& _Arg) noexcept { // forward an lvalue as either an lvalue or an rvalue

	push	ebp
	mov	ebp, esp

; 1302 :     return static_cast<_Ty&&>(_Arg);

	mov	eax, DWORD PTR __Arg$[ebp]

; 1303 : }

	pop	ebp
	ret	0
??$forward@AAPAU?$_List_node@PAVRaven_Bot@@PAX@std@@@std@@YAAAPAU?$_List_node@PAVRaven_Bot@@PAX@0@AAPAU10@@Z ENDP ; std::forward<std::_List_node<Raven_Bot *,void *> * &>
_TEXT	ENDS
; Function compile flags: /Odtp /RTCsu
; File C:\Program Files (x86)\Microsoft Visual Studio\2019\Community\VC\Tools\MSVC\14.21.27702\include\type_traits
;	COMDAT ??$forward@PAU_Container_base12@std@@@std@@YA$$QAPAU_Container_base12@0@AAPAU10@@Z
_TEXT	SEGMENT
__Arg$ = 8						; size = 4
??$forward@PAU_Container_base12@std@@@std@@YA$$QAPAU_Container_base12@0@AAPAU10@@Z PROC ; std::forward<std::_Container_base12 *>, COMDAT

; 1301 :     remove_reference_t<_Ty>& _Arg) noexcept { // forward an lvalue as either an lvalue or an rvalue

	push	ebp
	mov	ebp, esp

; 1302 :     return static_cast<_Ty&&>(_Arg);

	mov	eax, DWORD PTR __Arg$[ebp]

; 1303 : }

	pop	ebp
	ret	0
??$forward@PAU_Container_base12@std@@@std@@YA$$QAPAU_Container_base12@0@AAPAU10@@Z ENDP ; std::forward<std::_Container_base12 *>
_TEXT	ENDS
; Function compile flags: /Odtp /RTCsu
; File C:\Program Files (x86)\Microsoft Visual Studio\2019\Community\VC\Tools\MSVC\14.21.27702\include\xmemory0
;	COMDAT ??$_Deallocate_plain@V?$allocator@U_Container_proxy@std@@@std@@@std@@YAXAAV?$allocator@U_Container_proxy@std@@@0@QAU_Container_proxy@0@@Z
_TEXT	SEGMENT
__$EHRec$ = -12						; size = 12
__Al$ = 8						; size = 4
__Ptr$ = 12						; size = 4
??$_Deallocate_plain@V?$allocator@U_Container_proxy@std@@@std@@@std@@YAXAAV?$allocator@U_Container_proxy@std@@@0@QAU_Container_proxy@0@@Z PROC ; std::_Deallocate_plain<std::allocator<std::_Container_proxy> >, COMDAT

; 1144 :     _Alloc& _Al, typename _Alloc::value_type* const _Ptr) noexcept { // deallocate a plain pointer using an allocator

	push	ebp
	mov	ebp, esp
	push	-1
	push	__ehhandler$??$_Deallocate_plain@V?$allocator@U_Container_proxy@std@@@std@@@std@@YAXAAV?$allocator@U_Container_proxy@std@@@0@QAU_Container_proxy@0@@Z
	mov	eax, DWORD PTR fs:0
	push	eax
	mov	eax, DWORD PTR ___security_cookie
	xor	eax, ebp
	push	eax
	lea	eax, DWORD PTR __$EHRec$[ebp]
	mov	DWORD PTR fs:0, eax

; 1145 :     using _Alloc_traits = allocator_traits<_Alloc>;
; 1146 :     if constexpr (is_same_v<typename _Alloc_traits::pointer, typename _Alloc::value_type*>) {
; 1147 :         _Alloc_traits::deallocate(_Al, _Ptr, 1);

	push	1
	mov	eax, DWORD PTR __Ptr$[ebp]
	push	eax
	mov	ecx, DWORD PTR __Al$[ebp]
	push	ecx
	call	?deallocate@?$_Default_allocator_traits@V?$allocator@U_Container_proxy@std@@@std@@@std@@SAXAAV?$allocator@U_Container_proxy@std@@@2@QAU_Container_proxy@2@I@Z ; std::_Default_allocator_traits<std::allocator<std::_Container_proxy> >::deallocate
	add	esp, 12					; 0000000cH

; 1148 :     } else {
; 1149 :         using _Ptr_traits = pointer_traits<typename _Alloc_traits::pointer>;
; 1150 :         _Alloc_traits::deallocate(_Al, _Ptr_traits::pointer_to(*_Ptr), 1);
; 1151 :     }
; 1152 : }

	mov	ecx, DWORD PTR __$EHRec$[ebp]
	mov	DWORD PTR fs:0, ecx
	pop	ecx
	add	esp, 12					; 0000000cH
	cmp	ebp, esp
	call	__RTC_CheckEsp
	mov	esp, ebp
	pop	ebp
	ret	0
_TEXT	ENDS
;	COMDAT text$x
text$x	SEGMENT
__ehhandler$??$_Deallocate_plain@V?$allocator@U_Container_proxy@std@@@std@@@std@@YAXAAV?$allocator@U_Container_proxy@std@@@0@QAU_Container_proxy@0@@Z:
	mov	edx, DWORD PTR [esp+8]
	lea	eax, DWORD PTR [edx+12]
	mov	ecx, DWORD PTR [edx-4]
	xor	ecx, eax
	call	@__security_check_cookie@4
	mov	eax, OFFSET __ehfuncinfo$??$_Deallocate_plain@V?$allocator@U_Container_proxy@std@@@std@@@std@@YAXAAV?$allocator@U_Container_proxy@std@@@0@QAU_Container_proxy@0@@Z
	jmp	___CxxFrameHandler3
text$x	ENDS
??$_Deallocate_plain@V?$allocator@U_Container_proxy@std@@@std@@@std@@YAXAAV?$allocator@U_Container_proxy@std@@@0@QAU_Container_proxy@0@@Z ENDP ; std::_Deallocate_plain<std::allocator<std::_Container_proxy> >
; Function compile flags: /Odtp /RTCsu
; File C:\Program Files (x86)\Microsoft Visual Studio\2019\Community\VC\Tools\MSVC\14.21.27702\include\xmemory0
;	COMDAT ??$destroy@U_Container_proxy@std@@@?$_Default_allocator_traits@V?$allocator@U_Container_proxy@std@@@std@@@std@@SAXAAV?$allocator@U_Container_proxy@std@@@1@QAU_Container_proxy@1@@Z
_TEXT	SEGMENT
___formal$ = 8						; size = 4
__Ptr$ = 12						; size = 4
??$destroy@U_Container_proxy@std@@@?$_Default_allocator_traits@V?$allocator@U_Container_proxy@std@@@std@@@std@@SAXAAV?$allocator@U_Container_proxy@std@@@1@QAU_Container_proxy@1@@Z PROC ; std::_Default_allocator_traits<std::allocator<std::_Container_proxy> >::destroy<std::_Container_proxy>, COMDAT

; 824  :     static void destroy(_Alloc&, _Uty* const _Ptr) { // destroy object at _Ptr

	push	ebp
	mov	ebp, esp

; 825  :         _Ptr->~_Uty();
; 826  :     }

	pop	ebp
	ret	0
??$destroy@U_Container_proxy@std@@@?$_Default_allocator_traits@V?$allocator@U_Container_proxy@std@@@std@@@std@@SAXAAV?$allocator@U_Container_proxy@std@@@1@QAU_Container_proxy@1@@Z ENDP ; std::_Default_allocator_traits<std::allocator<std::_Container_proxy> >::destroy<std::_Container_proxy>
_TEXT	ENDS
; Function compile flags: /Odtp /RTCsu
; File C:\Program Files (x86)\Microsoft Visual Studio\2019\Community\VC\Tools\MSVC\14.21.27702\include\utility
;	COMDAT ??$swap@IX@std@@YAXAAI0@Z
_TEXT	SEGMENT
__Tmp$ = -8						; size = 4
__Left$ = 8						; size = 4
__Right$ = 12						; size = 4
??$swap@IX@std@@YAXAAI0@Z PROC				; std::swap<unsigned int,void>, COMDAT

; 53   :         is_nothrow_move_assignable_v<_Ty>) { // exchange values stored at _Left and _Right

	push	ebp
	mov	ebp, esp
	sub	esp, 12					; 0000000cH
	mov	DWORD PTR [ebp-12], -858993460		; ccccccccH
	mov	DWORD PTR [ebp-8], -858993460		; ccccccccH
	mov	DWORD PTR [ebp-4], -858993460		; ccccccccH

; 54   :     _Ty _Tmp = _STD move(_Left);

	mov	eax, DWORD PTR __Left$[ebp]
	push	eax
	call	??$move@AAI@std@@YA$$QAIAAI@Z		; std::move<unsigned int &>
	add	esp, 4
	mov	ecx, DWORD PTR [eax]
	mov	DWORD PTR __Tmp$[ebp], ecx

; 55   :     _Left    = _STD move(_Right);

	mov	edx, DWORD PTR __Right$[ebp]
	push	edx
	call	??$move@AAI@std@@YA$$QAIAAI@Z		; std::move<unsigned int &>
	add	esp, 4
	mov	ecx, DWORD PTR __Left$[ebp]
	mov	edx, DWORD PTR [eax]
	mov	DWORD PTR [ecx], edx

; 56   :     _Right   = _STD move(_Tmp);

	lea	eax, DWORD PTR __Tmp$[ebp]
	push	eax
	call	??$move@AAI@std@@YA$$QAIAAI@Z		; std::move<unsigned int &>
	add	esp, 4
	mov	ecx, DWORD PTR __Right$[ebp]
	mov	edx, DWORD PTR [eax]
	mov	DWORD PTR [ecx], edx

; 57   : }

	push	edx
	mov	ecx, ebp
	push	eax
	lea	edx, DWORD PTR $LN5@swap
	call	@_RTC_CheckStackVars@8
	pop	eax
	pop	edx
	add	esp, 12					; 0000000cH
	cmp	ebp, esp
	call	__RTC_CheckEsp
	mov	esp, ebp
	pop	ebp
	ret	0
	npad	3
$LN5@swap:
	DD	1
	DD	$LN4@swap
$LN4@swap:
	DD	-8					; fffffff8H
	DD	4
	DD	$LN3@swap
$LN3@swap:
	DB	95					; 0000005fH
	DB	84					; 00000054H
	DB	109					; 0000006dH
	DB	112					; 00000070H
	DB	0
??$swap@IX@std@@YAXAAI0@Z ENDP				; std::swap<unsigned int,void>
_TEXT	ENDS
; Function compile flags: /Odtp /RTCsu
; File C:\Program Files (x86)\Microsoft Visual Studio\2019\Community\VC\Tools\MSVC\14.21.27702\include\utility
;	COMDAT ??$swap@PAU?$_List_node@PAVRaven_Bot@@PAX@std@@X@std@@YAXAAPAU?$_List_node@PAVRaven_Bot@@PAX@0@0@Z
_TEXT	SEGMENT
__Tmp$ = -8						; size = 4
__Left$ = 8						; size = 4
__Right$ = 12						; size = 4
??$swap@PAU?$_List_node@PAVRaven_Bot@@PAX@std@@X@std@@YAXAAPAU?$_List_node@PAVRaven_Bot@@PAX@0@0@Z PROC ; std::swap<std::_List_node<Raven_Bot *,void *> *,void>, COMDAT

; 53   :         is_nothrow_move_assignable_v<_Ty>) { // exchange values stored at _Left and _Right

	push	ebp
	mov	ebp, esp
	sub	esp, 12					; 0000000cH
	mov	DWORD PTR [ebp-12], -858993460		; ccccccccH
	mov	DWORD PTR [ebp-8], -858993460		; ccccccccH
	mov	DWORD PTR [ebp-4], -858993460		; ccccccccH

; 54   :     _Ty _Tmp = _STD move(_Left);

	mov	eax, DWORD PTR __Left$[ebp]
	push	eax
	call	??$move@AAPAU?$_List_node@PAVRaven_Bot@@PAX@std@@@std@@YA$$QAPAU?$_List_node@PAVRaven_Bot@@PAX@0@AAPAU10@@Z ; std::move<std::_List_node<Raven_Bot *,void *> * &>
	add	esp, 4
	mov	ecx, DWORD PTR [eax]
	mov	DWORD PTR __Tmp$[ebp], ecx

; 55   :     _Left    = _STD move(_Right);

	mov	edx, DWORD PTR __Right$[ebp]
	push	edx
	call	??$move@AAPAU?$_List_node@PAVRaven_Bot@@PAX@std@@@std@@YA$$QAPAU?$_List_node@PAVRaven_Bot@@PAX@0@AAPAU10@@Z ; std::move<std::_List_node<Raven_Bot *,void *> * &>
	add	esp, 4
	mov	ecx, DWORD PTR __Left$[ebp]
	mov	edx, DWORD PTR [eax]
	mov	DWORD PTR [ecx], edx

; 56   :     _Right   = _STD move(_Tmp);

	lea	eax, DWORD PTR __Tmp$[ebp]
	push	eax
	call	??$move@AAPAU?$_List_node@PAVRaven_Bot@@PAX@std@@@std@@YA$$QAPAU?$_List_node@PAVRaven_Bot@@PAX@0@AAPAU10@@Z ; std::move<std::_List_node<Raven_Bot *,void *> * &>
	add	esp, 4
	mov	ecx, DWORD PTR __Right$[ebp]
	mov	edx, DWORD PTR [eax]
	mov	DWORD PTR [ecx], edx

; 57   : }

	push	edx
	mov	ecx, ebp
	push	eax
	lea	edx, DWORD PTR $LN5@swap
	call	@_RTC_CheckStackVars@8
	pop	eax
	pop	edx
	add	esp, 12					; 0000000cH
	cmp	ebp, esp
	call	__RTC_CheckEsp
	mov	esp, ebp
	pop	ebp
	ret	0
	npad	3
$LN5@swap:
	DD	1
	DD	$LN4@swap
$LN4@swap:
	DD	-8					; fffffff8H
	DD	4
	DD	$LN3@swap
$LN3@swap:
	DB	95					; 0000005fH
	DB	84					; 00000054H
	DB	109					; 0000006dH
	DB	112					; 00000070H
	DB	0
??$swap@PAU?$_List_node@PAVRaven_Bot@@PAX@std@@X@std@@YAXAAPAU?$_List_node@PAVRaven_Bot@@PAX@0@0@Z ENDP ; std::swap<std::_List_node<Raven_Bot *,void *> *,void>
_TEXT	ENDS
; Function compile flags: /Odtp /RTCsu
; File C:\Program Files (x86)\Microsoft Visual Studio\2019\Community\VC\Tools\MSVC\14.21.27702\include\utility
;	COMDAT ??$_Swap_adl@PAU?$_List_node@PAVRaven_Bot@@PAX@std@@@std@@YAXAAPAU?$_List_node@PAVRaven_Bot@@PAX@0@0@Z
_TEXT	SEGMENT
__Left$ = 8						; size = 4
__Right$ = 12						; size = 4
??$_Swap_adl@PAU?$_List_node@PAVRaven_Bot@@PAX@std@@@std@@YAXAAPAU?$_List_node@PAVRaven_Bot@@PAX@0@0@Z PROC ; std::_Swap_adl<std::_List_node<Raven_Bot *,void *> *>, COMDAT

; 62   :     _NOEXCEPT_COND(_Is_nothrow_swappable<_Ty>::value) { // exchange values stored at _Left and _Right, using ADL

	push	ebp
	mov	ebp, esp

; 63   :     swap(_Left, _Right);

	mov	eax, DWORD PTR __Right$[ebp]
	push	eax
	mov	ecx, DWORD PTR __Left$[ebp]
	push	ecx
	call	??$swap@PAU?$_List_node@PAVRaven_Bot@@PAX@std@@X@std@@YAXAAPAU?$_List_node@PAVRaven_Bot@@PAX@0@0@Z ; std::swap<std::_List_node<Raven_Bot *,void *> *,void>
	add	esp, 8

; 64   : }

	cmp	ebp, esp
	call	__RTC_CheckEsp
	pop	ebp
	ret	0
??$_Swap_adl@PAU?$_List_node@PAVRaven_Bot@@PAX@std@@@std@@YAXAAPAU?$_List_node@PAVRaven_Bot@@PAX@0@0@Z ENDP ; std::_Swap_adl<std::_List_node<Raven_Bot *,void *> *>
_TEXT	ENDS
; Function compile flags: /Odtp /RTCsu
; File C:\Program Files (x86)\Microsoft Visual Studio\2019\Community\VC\Tools\MSVC\14.21.27702\include\xmemory0
;	COMDAT ??$_Get_size_of_n@$0M@@std@@YAII@Z
_TEXT	SEGMENT
__Result$ = -8						; size = 4
__Max_possible$ = -4					; size = 4
__Count$ = 8						; size = 4
??$_Get_size_of_n@$0M@@std@@YAII@Z PROC			; std::_Get_size_of_n<12>, COMDAT

; 24   :     const size_t _Count) noexcept { // gets the size of _Count copies of a type sized _Ty_size

	push	ebp
	mov	ebp, esp
	sub	esp, 8
	mov	DWORD PTR [ebp-8], -858993460		; ccccccccH
	mov	DWORD PTR [ebp-4], -858993460		; ccccccccH

; 25   :     constexpr size_t _Max_possible = static_cast<size_t>(-1) / _Ty_size;

	mov	DWORD PTR __Max_possible$[ebp], 357913941 ; 15555555H

; 26   :     size_t _Result                 = _Count * _Ty_size;

	imul	eax, DWORD PTR __Count$[ebp], 12
	mov	DWORD PTR __Result$[ebp], eax

; 27   :     if (_Max_possible < _Count) { // multiply overflow, try allocating all of memory and assume the

	cmp	DWORD PTR __Count$[ebp], 357913941	; 15555555H
	jbe	SHORT $LN2@Get_size_o

; 28   :                                   // allocation function will throw bad_alloc
; 29   :         _Result = static_cast<size_t>(-1);

	mov	DWORD PTR __Result$[ebp], -1
$LN2@Get_size_o:

; 30   :     }
; 31   : 
; 32   :     return _Result;

	mov	eax, DWORD PTR __Result$[ebp]

; 33   : }

	mov	esp, ebp
	pop	ebp
	ret	0
??$_Get_size_of_n@$0M@@std@@YAII@Z ENDP			; std::_Get_size_of_n<12>
_TEXT	ENDS
; Function compile flags: /Odtp /RTCsu
; File C:\Program Files (x86)\Microsoft Visual Studio\2019\Community\VC\Tools\MSVC\14.21.27702\include\xmemory0
;	COMDAT ??$_Get_size_of_n@$07@std@@YAII@Z
_TEXT	SEGMENT
__Result$ = -8						; size = 4
__Max_possible$ = -4					; size = 4
__Count$ = 8						; size = 4
??$_Get_size_of_n@$07@std@@YAII@Z PROC			; std::_Get_size_of_n<8>, COMDAT

; 24   :     const size_t _Count) noexcept { // gets the size of _Count copies of a type sized _Ty_size

	push	ebp
	mov	ebp, esp
	sub	esp, 8
	mov	DWORD PTR [ebp-8], -858993460		; ccccccccH
	mov	DWORD PTR [ebp-4], -858993460		; ccccccccH

; 25   :     constexpr size_t _Max_possible = static_cast<size_t>(-1) / _Ty_size;

	mov	DWORD PTR __Max_possible$[ebp], 536870911 ; 1fffffffH

; 26   :     size_t _Result                 = _Count * _Ty_size;

	mov	eax, DWORD PTR __Count$[ebp]
	shl	eax, 3
	mov	DWORD PTR __Result$[ebp], eax

; 27   :     if (_Max_possible < _Count) { // multiply overflow, try allocating all of memory and assume the

	cmp	DWORD PTR __Count$[ebp], 536870911	; 1fffffffH
	jbe	SHORT $LN2@Get_size_o

; 28   :                                   // allocation function will throw bad_alloc
; 29   :         _Result = static_cast<size_t>(-1);

	mov	DWORD PTR __Result$[ebp], -1
$LN2@Get_size_o:

; 30   :     }
; 31   : 
; 32   :     return _Result;

	mov	eax, DWORD PTR __Result$[ebp]

; 33   : }

	mov	esp, ebp
	pop	ebp
	ret	0
??$_Get_size_of_n@$07@std@@YAII@Z ENDP			; std::_Get_size_of_n<8>
_TEXT	ENDS
; Function compile flags: /Odtp /RTCsu
; File C:\Program Files (x86)\Microsoft Visual Studio\2019\Community\VC\Tools\MSVC\14.21.27702\include\xmemory0
;	COMDAT ??$_Deallocate@$07$0A@@std@@YAXPAXI@Z
_TEXT	SEGMENT
__$EHRec$ = -12						; size = 12
__Ptr$ = 8						; size = 4
__Bytes$ = 12						; size = 4
??$_Deallocate@$07$0A@@std@@YAXPAXI@Z PROC		; std::_Deallocate<8,0>, COMDAT

; 188  :     void* _Ptr, size_t _Bytes) noexcept { // deallocate storage allocated by _Allocate when !_HAS_ALIGNED_NEW || _Align

	push	ebp
	mov	ebp, esp
	push	-1
	push	__ehhandler$??$_Deallocate@$07$0A@@std@@YAXPAXI@Z
	mov	eax, DWORD PTR fs:0
	push	eax
	mov	eax, DWORD PTR ___security_cookie
	xor	eax, ebp
	push	eax
	lea	eax, DWORD PTR __$EHRec$[ebp]
	mov	DWORD PTR fs:0, eax

; 189  :                                           // <= __STDCPP_DEFAULT_NEW_ALIGNMENT__
; 190  : #if defined(_M_IX86) || defined(_M_X64)
; 191  :     if (_Bytes >= _Big_allocation_threshold) { // boost the alignment of big allocations to help autovectorization

	cmp	DWORD PTR __Bytes$[ebp], 4096		; 00001000H
	jb	SHORT $LN2@Deallocate

; 192  :         _Adjust_manually_vector_aligned(_Ptr, _Bytes);

	lea	eax, DWORD PTR __Bytes$[ebp]
	push	eax
	lea	ecx, DWORD PTR __Ptr$[ebp]
	push	ecx
	call	?_Adjust_manually_vector_aligned@std@@YAXAAPAXAAI@Z ; std::_Adjust_manually_vector_aligned
	add	esp, 8
$LN2@Deallocate:

; 193  :     }
; 194  : #endif // defined(_M_IX86) || defined(_M_X64)
; 195  : 
; 196  :     ::operator delete(_Ptr, _Bytes);

	mov	edx, DWORD PTR __Bytes$[ebp]
	push	edx
	mov	eax, DWORD PTR __Ptr$[ebp]
	push	eax
	call	??3@YAXPAXI@Z				; operator delete
	add	esp, 8

; 197  : }

	mov	ecx, DWORD PTR __$EHRec$[ebp]
	mov	DWORD PTR fs:0, ecx
	pop	ecx
	add	esp, 12					; 0000000cH
	cmp	ebp, esp
	call	__RTC_CheckEsp
	mov	esp, ebp
	pop	ebp
	ret	0
_TEXT	ENDS
;	COMDAT text$x
text$x	SEGMENT
__ehhandler$??$_Deallocate@$07$0A@@std@@YAXPAXI@Z:
	mov	edx, DWORD PTR [esp+8]
	lea	eax, DWORD PTR [edx+12]
	mov	ecx, DWORD PTR [edx-4]
	xor	ecx, eax
	call	@__security_check_cookie@4
	mov	eax, OFFSET __ehfuncinfo$??$_Deallocate@$07$0A@@std@@YAXPAXI@Z
	jmp	___CxxFrameHandler3
text$x	ENDS
??$_Deallocate@$07$0A@@std@@YAXPAXI@Z ENDP		; std::_Deallocate<8,0>
; Function compile flags: /Odtp /RTCsu
; File C:\Program Files (x86)\Microsoft Visual Studio\2019\Community\VC\Tools\MSVC\14.21.27702\include\xmemory0
;	COMDAT ??$_Allocate@$07U_Default_allocate_traits@std@@$0A@@std@@YAPAXI@Z
_TEXT	SEGMENT
__Bytes$ = 8						; size = 4
??$_Allocate@$07U_Default_allocate_traits@std@@$0A@@std@@YAPAXI@Z PROC ; std::_Allocate<8,std::_Default_allocate_traits,0>, COMDAT

; 172  :     const size_t _Bytes) { // allocate _Bytes when !_HAS_ALIGNED_NEW || _Align <= __STDCPP_DEFAULT_NEW_ALIGNMENT__

	push	ebp
	mov	ebp, esp

; 173  : #if defined(_M_IX86) || defined(_M_X64)
; 174  :     if (_Bytes >= _Big_allocation_threshold) { // boost the alignment of big allocations to help autovectorization

	cmp	DWORD PTR __Bytes$[ebp], 4096		; 00001000H
	jb	SHORT $LN2@Allocate

; 175  :         return _Allocate_manually_vector_aligned<_Traits>(_Bytes);

	mov	eax, DWORD PTR __Bytes$[ebp]
	push	eax
	call	??$_Allocate_manually_vector_aligned@U_Default_allocate_traits@std@@@std@@YAPAXI@Z ; std::_Allocate_manually_vector_aligned<std::_Default_allocate_traits>
	add	esp, 4
	jmp	SHORT $LN1@Allocate
$LN2@Allocate:

; 176  :     }
; 177  : #endif // defined(_M_IX86) || defined(_M_X64)
; 178  : 
; 179  :     if (_Bytes != 0) {

	cmp	DWORD PTR __Bytes$[ebp], 0
	je	SHORT $LN3@Allocate

; 180  :         return _Traits::_Allocate(_Bytes);

	mov	ecx, DWORD PTR __Bytes$[ebp]
	push	ecx
	call	?_Allocate@_Default_allocate_traits@std@@SAPAXI@Z ; std::_Default_allocate_traits::_Allocate
	add	esp, 4
	jmp	SHORT $LN1@Allocate
$LN3@Allocate:

; 181  :     }
; 182  : 
; 183  :     return nullptr;

	xor	eax, eax
$LN1@Allocate:

; 184  : }

	cmp	ebp, esp
	call	__RTC_CheckEsp
	pop	ebp
	ret	0
??$_Allocate@$07U_Default_allocate_traits@std@@$0A@@std@@YAPAXI@Z ENDP ; std::_Allocate<8,std::_Default_allocate_traits,0>
_TEXT	ENDS
; Function compile flags: /Odtp /RTCsu
; File C:\Program Files (x86)\Microsoft Visual Studio\2019\Community\VC\Tools\MSVC\14.21.27702\include\xmemory0
;	COMDAT ??$_Pocma@V?$allocator@U?$_List_node@PAVRaven_Bot@@PAX@std@@@std@@@std@@YAXAAV?$allocator@U?$_List_node@PAVRaven_Bot@@PAX@std@@@0@0@Z
_TEXT	SEGMENT
__Left$ = 8						; size = 4
__Right$ = 12						; size = 4
??$_Pocma@V?$allocator@U?$_List_node@PAVRaven_Bot@@PAX@std@@@std@@@std@@YAXAAV?$allocator@U?$_List_node@PAVRaven_Bot@@PAX@std@@@0@0@Z PROC ; std::_Pocma<std::allocator<std::_List_node<Raven_Bot *,void *> > >, COMDAT

; 1025 : inline void _Pocma(_Alloc& _Left, _Alloc& _Right) noexcept { // (maybe) propagate on container move assignment

	push	ebp
	mov	ebp, esp

; 1026 :     if constexpr (allocator_traits<_Alloc>::propagate_on_container_move_assignment::value) {
; 1027 :         _Left = _STD move(_Right);

	mov	eax, DWORD PTR __Right$[ebp]
	push	eax
	call	??$move@AAV?$allocator@U?$_List_node@PAVRaven_Bot@@PAX@std@@@std@@@std@@YA$$QAV?$allocator@U?$_List_node@PAVRaven_Bot@@PAX@std@@@0@AAV10@@Z ; std::move<std::allocator<std::_List_node<Raven_Bot *,void *> > &>
	add	esp, 4

; 1028 :     } else {
; 1029 :         (void) _Left; // TRANSITION, VSO#486357
; 1030 :         (void) _Right; // TRANSITION, VSO#486357
; 1031 :     }
; 1032 : }

	cmp	ebp, esp
	call	__RTC_CheckEsp
	pop	ebp
	ret	0
??$_Pocma@V?$allocator@U?$_List_node@PAVRaven_Bot@@PAX@std@@@std@@@std@@YAXAAV?$allocator@U?$_List_node@PAVRaven_Bot@@PAX@std@@@0@0@Z ENDP ; std::_Pocma<std::allocator<std::_List_node<Raven_Bot *,void *> > >
_TEXT	ENDS
; Function compile flags: /Odtp /RTCsu
; File C:\Program Files (x86)\Microsoft Visual Studio\2019\Community\VC\Tools\MSVC\14.21.27702\include\list
;	COMDAT ??$_Freenode0@V?$allocator@U?$_List_node@PAVRaven_Bot@@PAX@std@@@std@@@?$_List_node@PAVRaven_Bot@@PAX@std@@SAXAAV?$allocator@U?$_List_node@PAVRaven_Bot@@PAX@std@@@1@PAU01@@Z
_TEXT	SEGMENT
__$EHRec$ = -12						; size = 12
__Al$ = 8						; size = 4
__Ptr$ = 12						; size = 4
??$_Freenode0@V?$allocator@U?$_List_node@PAVRaven_Bot@@PAX@std@@@std@@@?$_List_node@PAVRaven_Bot@@PAX@std@@SAXAAV?$allocator@U?$_List_node@PAVRaven_Bot@@PAX@std@@@1@PAU01@@Z PROC ; std::_List_node<Raven_Bot *,void *>::_Freenode0<std::allocator<std::_List_node<Raven_Bot *,void *> > >, COMDAT

; 323  :         _Alnode& _Al, _Nodeptr _Ptr) noexcept { // destroy pointer members in _Ptr and deallocate with _Al

	push	ebp
	mov	ebp, esp
	push	-1
	push	__ehhandler$??$_Freenode0@V?$allocator@U?$_List_node@PAVRaven_Bot@@PAX@std@@@std@@@?$_List_node@PAVRaven_Bot@@PAX@std@@SAXAAV?$allocator@U?$_List_node@PAVRaven_Bot@@PAX@std@@@1@PAU01@@Z
	mov	eax, DWORD PTR fs:0
	push	eax
	mov	eax, DWORD PTR ___security_cookie
	xor	eax, ebp
	push	eax
	lea	eax, DWORD PTR __$EHRec$[ebp]
	mov	DWORD PTR fs:0, eax

; 324  :         static_assert(is_same_v<typename _Alnode::value_type, _List_node>, "Bad _Freenode0 call");
; 325  :         using _Alnode_traits = allocator_traits<_Alnode>;
; 326  :         _Alnode_traits::destroy(_Al, _STD addressof(_Ptr->_Next));

	mov	eax, DWORD PTR __Ptr$[ebp]
	push	eax
	call	??$addressof@PAU?$_List_node@PAVRaven_Bot@@PAX@std@@@std@@YAPAPAU?$_List_node@PAVRaven_Bot@@PAX@0@AAPAU10@@Z ; std::addressof<std::_List_node<Raven_Bot *,void *> *>
	add	esp, 4
	push	eax
	mov	ecx, DWORD PTR __Al$[ebp]
	push	ecx
	call	??$destroy@PAU?$_List_node@PAVRaven_Bot@@PAX@std@@@?$_Default_allocator_traits@V?$allocator@U?$_List_node@PAVRaven_Bot@@PAX@std@@@std@@@std@@SAXAAV?$allocator@U?$_List_node@PAVRaven_Bot@@PAX@std@@@1@QAPAU?$_List_node@PAVRaven_Bot@@PAX@1@@Z ; std::_Default_allocator_traits<std::allocator<std::_List_node<Raven_Bot *,void *> > >::destroy<std::_List_node<Raven_Bot *,void *> *>
	add	esp, 8

; 327  :         _Alnode_traits::destroy(_Al, _STD addressof(_Ptr->_Prev));

	mov	edx, DWORD PTR __Ptr$[ebp]
	add	edx, 4
	push	edx
	call	??$addressof@PAU?$_List_node@PAVRaven_Bot@@PAX@std@@@std@@YAPAPAU?$_List_node@PAVRaven_Bot@@PAX@0@AAPAU10@@Z ; std::addressof<std::_List_node<Raven_Bot *,void *> *>
	add	esp, 4
	push	eax
	mov	eax, DWORD PTR __Al$[ebp]
	push	eax
	call	??$destroy@PAU?$_List_node@PAVRaven_Bot@@PAX@std@@@?$_Default_allocator_traits@V?$allocator@U?$_List_node@PAVRaven_Bot@@PAX@std@@@std@@@std@@SAXAAV?$allocator@U?$_List_node@PAVRaven_Bot@@PAX@std@@@1@QAPAU?$_List_node@PAVRaven_Bot@@PAX@1@@Z ; std::_Default_allocator_traits<std::allocator<std::_List_node<Raven_Bot *,void *> > >::destroy<std::_List_node<Raven_Bot *,void *> *>
	add	esp, 8

; 328  :         _Alnode_traits::deallocate(_Al, _Ptr, 1);

	push	1
	mov	ecx, DWORD PTR __Ptr$[ebp]
	push	ecx
	mov	edx, DWORD PTR __Al$[ebp]
	push	edx
	call	?deallocate@?$_Default_allocator_traits@V?$allocator@U?$_List_node@PAVRaven_Bot@@PAX@std@@@std@@@std@@SAXAAV?$allocator@U?$_List_node@PAVRaven_Bot@@PAX@std@@@2@QAU?$_List_node@PAVRaven_Bot@@PAX@2@I@Z ; std::_Default_allocator_traits<std::allocator<std::_List_node<Raven_Bot *,void *> > >::deallocate
	add	esp, 12					; 0000000cH

; 329  :     }

	mov	ecx, DWORD PTR __$EHRec$[ebp]
	mov	DWORD PTR fs:0, ecx
	pop	ecx
	add	esp, 12					; 0000000cH
	cmp	ebp, esp
	call	__RTC_CheckEsp
	mov	esp, ebp
	pop	ebp
	ret	0
_TEXT	ENDS
;	COMDAT text$x
text$x	SEGMENT
__ehhandler$??$_Freenode0@V?$allocator@U?$_List_node@PAVRaven_Bot@@PAX@std@@@std@@@?$_List_node@PAVRaven_Bot@@PAX@std@@SAXAAV?$allocator@U?$_List_node@PAVRaven_Bot@@PAX@std@@@1@PAU01@@Z:
	mov	edx, DWORD PTR [esp+8]
	lea	eax, DWORD PTR [edx+12]
	mov	ecx, DWORD PTR [edx-4]
	xor	ecx, eax
	call	@__security_check_cookie@4
	mov	eax, OFFSET __ehfuncinfo$??$_Freenode0@V?$allocator@U?$_List_node@PAVRaven_Bot@@PAX@std@@@std@@@?$_List_node@PAVRaven_Bot@@PAX@std@@SAXAAV?$allocator@U?$_List_node@PAVRaven_Bot@@PAX@std@@@1@PAU01@@Z
	jmp	___CxxFrameHandler3
text$x	ENDS
??$_Freenode0@V?$allocator@U?$_List_node@PAVRaven_Bot@@PAX@std@@@std@@@?$_List_node@PAVRaven_Bot@@PAX@std@@SAXAAV?$allocator@U?$_List_node@PAVRaven_Bot@@PAX@std@@@1@PAU01@@Z ENDP ; std::_List_node<Raven_Bot *,void *>::_Freenode0<std::allocator<std::_List_node<Raven_Bot *,void *> > >
; Function compile flags: /Odtp /RTCsu
; File C:\Program Files (x86)\Microsoft Visual Studio\2019\Community\VC\Tools\MSVC\14.21.27702\include\list
;	COMDAT ??$_Free_non_head@V?$allocator@U?$_List_node@PAVRaven_Bot@@PAX@std@@@std@@@?$_List_node@PAVRaven_Bot@@PAX@std@@SAXAAV?$allocator@U?$_List_node@PAVRaven_Bot@@PAX@std@@@1@PAU01@@Z
_TEXT	SEGMENT
__Pnext$1 = -8						; size = 4
__Pnode$ = -4						; size = 4
__Al$ = 8						; size = 4
__Head$ = 12						; size = 4
??$_Free_non_head@V?$allocator@U?$_List_node@PAVRaven_Bot@@PAX@std@@@std@@@?$_List_node@PAVRaven_Bot@@PAX@std@@SAXAAV?$allocator@U?$_List_node@PAVRaven_Bot@@PAX@std@@@1@PAU01@@Z PROC ; std::_List_node<Raven_Bot *,void *>::_Free_non_head<std::allocator<std::_List_node<Raven_Bot *,void *> > >, COMDAT

; 340  :         _Alnode& _Al, _Nodeptr _Head) noexcept { // free a list starting at _First and terminated at nullptr

	push	ebp
	mov	ebp, esp
	sub	esp, 8
	mov	DWORD PTR [ebp-8], -858993460		; ccccccccH
	mov	DWORD PTR [ebp-4], -858993460		; ccccccccH

; 341  :         _Head->_Prev->_Next = nullptr;

	mov	eax, DWORD PTR __Head$[ebp]
	mov	ecx, DWORD PTR [eax+4]
	mov	DWORD PTR [ecx], 0

; 342  : 
; 343  :         auto _Pnode = _Head->_Next;

	mov	edx, DWORD PTR __Head$[ebp]
	mov	eax, DWORD PTR [edx]
	mov	DWORD PTR __Pnode$[ebp], eax

; 344  :         for (_Nodeptr _Pnext; _Pnode != nullptr; _Pnode = _Pnext) {

	jmp	SHORT $LN4@Free_non_h
$LN2@Free_non_h:
	mov	ecx, DWORD PTR __Pnext$1[ebp]
	mov	DWORD PTR __Pnode$[ebp], ecx
$LN4@Free_non_h:
	cmp	DWORD PTR __Pnode$[ebp], 0
	je	SHORT $LN5@Free_non_h

; 345  :             _Pnext = _Pnode->_Next;

	mov	edx, DWORD PTR __Pnode$[ebp]
	mov	eax, DWORD PTR [edx]
	mov	DWORD PTR __Pnext$1[ebp], eax

; 346  :             _Freenode(_Al, _Pnode);

	mov	ecx, DWORD PTR __Pnode$[ebp]
	push	ecx
	mov	edx, DWORD PTR __Al$[ebp]
	push	edx
	call	??$_Freenode@V?$allocator@U?$_List_node@PAVRaven_Bot@@PAX@std@@@std@@@?$_List_node@PAVRaven_Bot@@PAX@std@@SAXAAV?$allocator@U?$_List_node@PAVRaven_Bot@@PAX@std@@@1@PAU01@@Z ; std::_List_node<Raven_Bot *,void *>::_Freenode<std::allocator<std::_List_node<Raven_Bot *,void *> > >
	add	esp, 8

; 347  :         }

	jmp	SHORT $LN2@Free_non_h
$LN5@Free_non_h:

; 348  :     }

	add	esp, 8
	cmp	ebp, esp
	call	__RTC_CheckEsp
	mov	esp, ebp
	pop	ebp
	ret	0
??$_Free_non_head@V?$allocator@U?$_List_node@PAVRaven_Bot@@PAX@std@@@std@@@?$_List_node@PAVRaven_Bot@@PAX@std@@SAXAAV?$allocator@U?$_List_node@PAVRaven_Bot@@PAX@std@@@1@PAU01@@Z ENDP ; std::_List_node<Raven_Bot *,void *>::_Free_non_head<std::allocator<std::_List_node<Raven_Bot *,void *> > >
_TEXT	ENDS
; Function compile flags: /Odtp /RTCsu
; File C:\Program Files (x86)\Microsoft Visual Studio\2019\Community\VC\Tools\MSVC\14.21.27702\include\xmemory0
;	COMDAT ??$construct@PAU?$_List_node@PAVRaven_Bot@@PAX@std@@AAPAU12@@?$_Default_allocator_traits@V?$allocator@U?$_List_node@PAVRaven_Bot@@PAX@std@@@std@@@std@@SAXAAV?$allocator@U?$_List_node@PAVRaven_Bot@@PAX@std@@@1@QAPAU?$_List_node@PAVRaven_Bot@@PAX@1@AAPAU31@@Z
_TEXT	SEGMENT
$T1 = -4						; size = 4
___formal$ = 8						; size = 4
__Ptr$ = 12						; size = 4
_<_Args_0>$ = 16					; size = 4
??$construct@PAU?$_List_node@PAVRaven_Bot@@PAX@std@@AAPAU12@@?$_Default_allocator_traits@V?$allocator@U?$_List_node@PAVRaven_Bot@@PAX@std@@@std@@@std@@SAXAAV?$allocator@U?$_List_node@PAVRaven_Bot@@PAX@std@@@1@QAPAU?$_List_node@PAVRaven_Bot@@PAX@1@AAPAU31@@Z PROC ; std::_Default_allocator_traits<std::allocator<std::_List_node<Raven_Bot *,void *> > >::construct<std::_List_node<Raven_Bot *,void *> *,std::_List_node<Raven_Bot *,void *> * &>, COMDAT

; 819  :     static void construct(_Alloc&, _Objty* const _Ptr, _Types&&... _Args) { // construct _Objty(_Types...) at _Ptr

	push	ebp
	mov	ebp, esp
	push	ecx
	mov	DWORD PTR [ebp-4], -858993460		; ccccccccH

; 820  :         ::new (const_cast<void*>(static_cast<const volatile void*>(_Ptr))) _Objty(_STD forward<_Types>(_Args)...);

	mov	eax, DWORD PTR __Ptr$[ebp]
	push	eax
	push	4
	call	??2@YAPAXIPAX@Z				; operator new
	add	esp, 8
	mov	DWORD PTR $T1[ebp], eax
	mov	ecx, DWORD PTR _<_Args_0>$[ebp]
	push	ecx
	call	??$forward@AAPAU?$_List_node@PAVRaven_Bot@@PAX@std@@@std@@YAAAPAU?$_List_node@PAVRaven_Bot@@PAX@0@AAPAU10@@Z ; std::forward<std::_List_node<Raven_Bot *,void *> * &>
	add	esp, 4
	mov	edx, DWORD PTR $T1[ebp]
	mov	eax, DWORD PTR [eax]
	mov	DWORD PTR [edx], eax

; 821  :     }

	add	esp, 4
	cmp	ebp, esp
	call	__RTC_CheckEsp
	mov	esp, ebp
	pop	ebp
	ret	0
??$construct@PAU?$_List_node@PAVRaven_Bot@@PAX@std@@AAPAU12@@?$_Default_allocator_traits@V?$allocator@U?$_List_node@PAVRaven_Bot@@PAX@std@@@std@@@std@@SAXAAV?$allocator@U?$_List_node@PAVRaven_Bot@@PAX@std@@@1@QAPAU?$_List_node@PAVRaven_Bot@@PAX@1@AAPAU31@@Z ENDP ; std::_Default_allocator_traits<std::allocator<std::_List_node<Raven_Bot *,void *> > >::construct<std::_List_node<Raven_Bot *,void *> *,std::_List_node<Raven_Bot *,void *> * &>
_TEXT	ENDS
; Function compile flags: /Odtp /RTCsu
; File C:\Program Files (x86)\Microsoft Visual Studio\2019\Community\VC\Tools\MSVC\14.21.27702\include\xstddef
;	COMDAT ??$addressof@PAU?$_List_node@PAVRaven_Bot@@PAX@std@@@std@@YAPAPAU?$_List_node@PAVRaven_Bot@@PAX@0@AAPAU10@@Z
_TEXT	SEGMENT
__Val$ = 8						; size = 4
??$addressof@PAU?$_List_node@PAVRaven_Bot@@PAX@std@@@std@@YAPAPAU?$_List_node@PAVRaven_Bot@@PAX@0@AAPAU10@@Z PROC ; std::addressof<std::_List_node<Raven_Bot *,void *> *>, COMDAT

; 280  : _NODISCARD constexpr _Ty* addressof(_Ty& _Val) noexcept { // return address of _Val

	push	ebp
	mov	ebp, esp

; 281  :     return __builtin_addressof(_Val);

	mov	eax, DWORD PTR __Val$[ebp]

; 282  : }

	pop	ebp
	ret	0
??$addressof@PAU?$_List_node@PAVRaven_Bot@@PAX@std@@@std@@YAPAPAU?$_List_node@PAVRaven_Bot@@PAX@0@AAPAU10@@Z ENDP ; std::addressof<std::_List_node<Raven_Bot *,void *> *>
_TEXT	ENDS
; Function compile flags: /Odtp /RTCsu
; File C:\Program Files (x86)\Microsoft Visual Studio\2019\Community\VC\Tools\MSVC\14.21.27702\include\xmemory0
;	COMDAT ??$construct@U_Container_proxy@std@@PAU_Container_base12@2@@?$_Default_allocator_traits@V?$allocator@U_Container_proxy@std@@@std@@@std@@SAXAAV?$allocator@U_Container_proxy@std@@@1@QAU_Container_proxy@1@$$QAPAU_Container_base12@1@@Z
_TEXT	SEGMENT
$T1 = -4						; size = 4
___formal$ = 8						; size = 4
__Ptr$ = 12						; size = 4
_<_Args_0>$ = 16					; size = 4
??$construct@U_Container_proxy@std@@PAU_Container_base12@2@@?$_Default_allocator_traits@V?$allocator@U_Container_proxy@std@@@std@@@std@@SAXAAV?$allocator@U_Container_proxy@std@@@1@QAU_Container_proxy@1@$$QAPAU_Container_base12@1@@Z PROC ; std::_Default_allocator_traits<std::allocator<std::_Container_proxy> >::construct<std::_Container_proxy,std::_Container_base12 *>, COMDAT

; 819  :     static void construct(_Alloc&, _Objty* const _Ptr, _Types&&... _Args) { // construct _Objty(_Types...) at _Ptr

	push	ebp
	mov	ebp, esp
	push	ecx
	mov	DWORD PTR [ebp-4], -858993460		; ccccccccH

; 820  :         ::new (const_cast<void*>(static_cast<const volatile void*>(_Ptr))) _Objty(_STD forward<_Types>(_Args)...);

	mov	eax, DWORD PTR __Ptr$[ebp]
	push	eax
	push	8
	call	??2@YAPAXIPAX@Z				; operator new
	add	esp, 8
	mov	DWORD PTR $T1[ebp], eax
	mov	ecx, DWORD PTR _<_Args_0>$[ebp]
	push	ecx
	call	??$forward@PAU_Container_base12@std@@@std@@YA$$QAPAU_Container_base12@0@AAPAU10@@Z ; std::forward<std::_Container_base12 *>
	add	esp, 4
	mov	edx, DWORD PTR [eax]
	push	edx
	mov	ecx, DWORD PTR $T1[ebp]
	call	??0_Container_proxy@std@@QAE@PAU_Container_base12@1@@Z ; std::_Container_proxy::_Container_proxy

; 821  :     }

	add	esp, 4
	cmp	ebp, esp
	call	__RTC_CheckEsp
	mov	esp, ebp
	pop	ebp
	ret	0
??$construct@U_Container_proxy@std@@PAU_Container_base12@2@@?$_Default_allocator_traits@V?$allocator@U_Container_proxy@std@@@std@@@std@@SAXAAV?$allocator@U_Container_proxy@std@@@1@QAU_Container_proxy@1@$$QAPAU_Container_base12@1@@Z ENDP ; std::_Default_allocator_traits<std::allocator<std::_Container_proxy> >::construct<std::_Container_proxy,std::_Container_base12 *>
_TEXT	ENDS
; Function compile flags: /Odtp /RTCsu
; File C:\Program Files (x86)\Microsoft Visual Studio\2019\Community\VC\Tools\MSVC\14.21.27702\include\xstddef
;	COMDAT ??$addressof@U_Container_base12@std@@@std@@YAPAU_Container_base12@0@AAU10@@Z
_TEXT	SEGMENT
__Val$ = 8						; size = 4
??$addressof@U_Container_base12@std@@@std@@YAPAU_Container_base12@0@AAU10@@Z PROC ; std::addressof<std::_Container_base12>, COMDAT

; 280  : _NODISCARD constexpr _Ty* addressof(_Ty& _Val) noexcept { // return address of _Val

	push	ebp
	mov	ebp, esp

; 281  :     return __builtin_addressof(_Val);

	mov	eax, DWORD PTR __Val$[ebp]

; 282  : }

	pop	ebp
	ret	0
??$addressof@U_Container_base12@std@@@std@@YAPAU_Container_base12@0@AAU10@@Z ENDP ; std::addressof<std::_Container_base12>
_TEXT	ENDS
; Function compile flags: /Odtp /RTCsu
; File C:\Program Files (x86)\Microsoft Visual Studio\2019\Community\VC\Tools\MSVC\14.21.27702\include\xmemory0
;	COMDAT ?deallocate@?$_Default_allocator_traits@V?$allocator@U_Container_proxy@std@@@std@@@std@@SAXAAV?$allocator@U_Container_proxy@std@@@2@QAU_Container_proxy@2@I@Z
_TEXT	SEGMENT
___formal$ = 8						; size = 4
__Ptr$ = 12						; size = 4
__Count$ = 16						; size = 4
?deallocate@?$_Default_allocator_traits@V?$allocator@U_Container_proxy@std@@@std@@@std@@SAXAAV?$allocator@U_Container_proxy@std@@@2@QAU_Container_proxy@2@I@Z PROC ; std::_Default_allocator_traits<std::allocator<std::_Container_proxy> >::deallocate, COMDAT

; 813  :     static void deallocate(_Alloc&, const pointer _Ptr, const size_type _Count) { // deallocate _Count elements at _Ptr

	push	ebp
	mov	ebp, esp

; 814  :         // no overflow check on the following multiply; we assume _Allocate did that check
; 815  :         _Deallocate<_New_alignof<value_type>>(_Ptr, sizeof(value_type) * _Count);

	mov	eax, DWORD PTR __Count$[ebp]
	shl	eax, 3
	push	eax
	mov	ecx, DWORD PTR __Ptr$[ebp]
	push	ecx
	call	??$_Deallocate@$07$0A@@std@@YAXPAXI@Z	; std::_Deallocate<8,0>
	add	esp, 8

; 816  :     }

	cmp	ebp, esp
	call	__RTC_CheckEsp
	pop	ebp
	ret	0
?deallocate@?$_Default_allocator_traits@V?$allocator@U_Container_proxy@std@@@std@@@std@@SAXAAV?$allocator@U_Container_proxy@std@@@2@QAU_Container_proxy@2@I@Z ENDP ; std::_Default_allocator_traits<std::allocator<std::_Container_proxy> >::deallocate
_TEXT	ENDS
; Function compile flags: /Odtp /RTCsu
; File C:\Program Files (x86)\Microsoft Visual Studio\2019\Community\VC\Tools\MSVC\14.21.27702\include\xstddef
;	COMDAT ??$_Unfancy@U_Container_proxy@std@@@std@@YAPAU_Container_proxy@0@PAU10@@Z
_TEXT	SEGMENT
__Ptr$ = 8						; size = 4
??$_Unfancy@U_Container_proxy@std@@@std@@YAPAU_Container_proxy@0@PAU10@@Z PROC ; std::_Unfancy<std::_Container_proxy>, COMDAT

; 294  : inline _Ty* _Unfancy(_Ty* _Ptr) { // do nothing for plain pointers

	push	ebp
	mov	ebp, esp

; 295  :     return _Ptr;

	mov	eax, DWORD PTR __Ptr$[ebp]

; 296  : }

	pop	ebp
	ret	0
??$_Unfancy@U_Container_proxy@std@@@std@@YAPAU_Container_proxy@0@PAU10@@Z ENDP ; std::_Unfancy<std::_Container_proxy>
_TEXT	ENDS
; Function compile flags: /Odtp /RTCsu
; File C:\Program Files (x86)\Microsoft Visual Studio\2019\Community\VC\Tools\MSVC\14.21.27702\include\xmemory0
;	COMDAT ??1?$_Container_proxy_ptr12@V?$allocator@U_Container_proxy@std@@@std@@@std@@QAE@XZ
_TEXT	SEGMENT
_this$ = -4						; size = 4
??1?$_Container_proxy_ptr12@V?$allocator@U_Container_proxy@std@@@std@@@std@@QAE@XZ PROC ; std::_Container_proxy_ptr12<std::allocator<std::_Container_proxy> >::~_Container_proxy_ptr12<std::allocator<std::_Container_proxy> >, COMDAT
; _this$ = ecx

; 1477 :     ~_Container_proxy_ptr12() {

	push	ebp
	mov	ebp, esp
	push	ecx
	mov	DWORD PTR [ebp-4], -858993460		; ccccccccH
	mov	DWORD PTR _this$[ebp], ecx

; 1478 :         if (_Ptr) {

	mov	eax, DWORD PTR _this$[ebp]
	cmp	DWORD PTR [eax], 0
	je	SHORT $LN3@Container_

; 1479 :             _Delete_plain(_Al, _Ptr);

	mov	ecx, DWORD PTR _this$[ebp]
	mov	edx, DWORD PTR [ecx]
	push	edx
	mov	eax, DWORD PTR _this$[ebp]
	mov	ecx, DWORD PTR [eax+4]
	push	ecx
	call	??$_Delete_plain@V?$allocator@U_Container_proxy@std@@@std@@@std@@YAXAAV?$allocator@U_Container_proxy@std@@@0@QAU_Container_proxy@0@@Z ; std::_Delete_plain<std::allocator<std::_Container_proxy> >
	add	esp, 8
$LN3@Container_:

; 1480 :         }
; 1481 :     }

	add	esp, 4
	cmp	ebp, esp
	call	__RTC_CheckEsp
	mov	esp, ebp
	pop	ebp
	ret	0
??1?$_Container_proxy_ptr12@V?$allocator@U_Container_proxy@std@@@std@@@std@@QAE@XZ ENDP ; std::_Container_proxy_ptr12<std::allocator<std::_Container_proxy> >::~_Container_proxy_ptr12<std::allocator<std::_Container_proxy> >
_TEXT	ENDS
; Function compile flags: /Odtp /RTCsu
; File C:\Program Files (x86)\Microsoft Visual Studio\2019\Community\VC\Tools\MSVC\14.21.27702\include\xmemory0
;	COMDAT ??0?$_Container_proxy_ptr12@V?$allocator@U_Container_proxy@std@@@std@@@std@@QAE@AAV?$allocator@U_Container_proxy@std@@@1@AAU_Container_base12@1@@Z
_TEXT	SEGMENT
$T1 = -8						; size = 4
_this$ = -4						; size = 4
__Al_$ = 8						; size = 4
__Mycont$ = 12						; size = 4
??0?$_Container_proxy_ptr12@V?$allocator@U_Container_proxy@std@@@std@@@std@@QAE@AAV?$allocator@U_Container_proxy@std@@@1@AAU_Container_base12@1@@Z PROC ; std::_Container_proxy_ptr12<std::allocator<std::_Container_proxy> >::_Container_proxy_ptr12<std::allocator<std::_Container_proxy> >, COMDAT
; _this$ = ecx

; 1463 :     _Container_proxy_ptr12(_Alloc& _Al_, _Container_base12& _Mycont)

	push	ebp
	mov	ebp, esp
	sub	esp, 8
	mov	DWORD PTR [ebp-8], -858993460		; ccccccccH
	mov	DWORD PTR [ebp-4], -858993460		; ccccccccH
	mov	DWORD PTR _this$[ebp], ecx

; 1464 :         : _Al(_Al_) { // create a new _Container_proxy pointing at _Mycont

	mov	eax, DWORD PTR _this$[ebp]
	mov	ecx, DWORD PTR __Al_$[ebp]
	mov	DWORD PTR [eax+4], ecx

; 1465 :         _Ptr = _Unfancy(_Al_.allocate(1));

	push	1
	mov	ecx, DWORD PTR __Al_$[ebp]
	call	?allocate@?$allocator@U_Container_proxy@std@@@std@@QAEPAU_Container_proxy@2@I@Z ; std::allocator<std::_Container_proxy>::allocate
	push	eax
	call	??$_Unfancy@U_Container_proxy@std@@@std@@YAPAU_Container_proxy@0@PAU10@@Z ; std::_Unfancy<std::_Container_proxy>
	add	esp, 4
	mov	edx, DWORD PTR _this$[ebp]
	mov	DWORD PTR [edx], eax

; 1466 :         allocator_traits<_Alloc>::construct(_Al, _Ptr, _STD addressof(_Mycont)); // assumed to be non-throwing

	mov	eax, DWORD PTR __Mycont$[ebp]
	push	eax
	call	??$addressof@U_Container_base12@std@@@std@@YAPAU_Container_base12@0@AAU10@@Z ; std::addressof<std::_Container_base12>
	add	esp, 4
	mov	DWORD PTR $T1[ebp], eax
	lea	ecx, DWORD PTR $T1[ebp]
	push	ecx
	mov	edx, DWORD PTR _this$[ebp]
	mov	eax, DWORD PTR [edx]
	push	eax
	mov	ecx, DWORD PTR _this$[ebp]
	mov	edx, DWORD PTR [ecx+4]
	push	edx
	call	??$construct@U_Container_proxy@std@@PAU_Container_base12@2@@?$_Default_allocator_traits@V?$allocator@U_Container_proxy@std@@@std@@@std@@SAXAAV?$allocator@U_Container_proxy@std@@@1@QAU_Container_proxy@1@$$QAPAU_Container_base12@1@@Z ; std::_Default_allocator_traits<std::allocator<std::_Container_proxy> >::construct<std::_Container_proxy,std::_Container_base12 *>
	add	esp, 12					; 0000000cH

; 1467 :         _Mycont._Myproxy = _Ptr;

	mov	eax, DWORD PTR __Mycont$[ebp]
	mov	ecx, DWORD PTR _this$[ebp]
	mov	edx, DWORD PTR [ecx]
	mov	DWORD PTR [eax], edx

; 1468 :     }

	mov	eax, DWORD PTR _this$[ebp]
	add	esp, 8
	cmp	ebp, esp
	call	__RTC_CheckEsp
	mov	esp, ebp
	pop	ebp
	ret	8
??0?$_Container_proxy_ptr12@V?$allocator@U_Container_proxy@std@@@std@@@std@@QAE@AAV?$allocator@U_Container_proxy@std@@@1@AAU_Container_base12@1@@Z ENDP ; std::_Container_proxy_ptr12<std::allocator<std::_Container_proxy> >::_Container_proxy_ptr12<std::allocator<std::_Container_proxy> >
_TEXT	ENDS
; Function compile flags: /Odtp /RTCsu
; File C:\Program Files (x86)\Microsoft Visual Studio\2019\Community\VC\Tools\MSVC\14.21.27702\include\xmemory0
;	COMDAT ??$?0$$V@?$_Compressed_pair@V?$allocator@U?$_List_node@PAVRaven_Bot@@PAX@std@@@std@@V?$_List_val@U?$_List_simple_types@PAVRaven_Bot@@@std@@@2@$00@std@@QAE@U_Zero_then_variadic_args_t@1@@Z
_TEXT	SEGMENT
_this$ = -4						; size = 4
___formal$ = 8						; size = 1
??$?0$$V@?$_Compressed_pair@V?$allocator@U?$_List_node@PAVRaven_Bot@@PAX@std@@@std@@V?$_List_val@U?$_List_simple_types@PAVRaven_Bot@@@std@@@2@$00@std@@QAE@U_Zero_then_variadic_args_t@1@@Z PROC ; std::_Compressed_pair<std::allocator<std::_List_node<Raven_Bot *,void *> >,std::_List_val<std::_List_simple_types<Raven_Bot *> >,1>::_Compressed_pair<std::allocator<std::_List_node<Raven_Bot *,void *> >,std::_List_val<std::_List_simple_types<Raven_Bot *> >,1><>, COMDAT
; _this$ = ecx

; 1511 :         : _Ty1(), _Myval2(_STD forward<_Other2>(_Val2)...) { // construct from forwarded values

	push	ebp
	mov	ebp, esp
	push	ecx
	mov	DWORD PTR [ebp-4], -858993460		; ccccccccH
	mov	DWORD PTR _this$[ebp], ecx
	mov	ecx, DWORD PTR _this$[ebp]
	call	??0?$allocator@U?$_List_node@PAVRaven_Bot@@PAX@std@@@std@@QAE@XZ ; std::allocator<std::_List_node<Raven_Bot *,void *> >::allocator<std::_List_node<Raven_Bot *,void *> >
	mov	ecx, DWORD PTR _this$[ebp]
	call	??0?$_List_val@U?$_List_simple_types@PAVRaven_Bot@@@std@@@std@@QAE@XZ ; std::_List_val<std::_List_simple_types<Raven_Bot *> >::_List_val<std::_List_simple_types<Raven_Bot *> >

; 1512 :     }

	mov	eax, DWORD PTR _this$[ebp]
	add	esp, 4
	cmp	ebp, esp
	call	__RTC_CheckEsp
	mov	esp, ebp
	pop	ebp
	ret	4
??$?0$$V@?$_Compressed_pair@V?$allocator@U?$_List_node@PAVRaven_Bot@@PAX@std@@@std@@V?$_List_val@U?$_List_simple_types@PAVRaven_Bot@@@std@@@2@$00@std@@QAE@U_Zero_then_variadic_args_t@1@@Z ENDP ; std::_Compressed_pair<std::allocator<std::_List_node<Raven_Bot *,void *> >,std::_List_val<std::_List_simple_types<Raven_Bot *> >,1>::_Compressed_pair<std::allocator<std::_List_node<Raven_Bot *,void *> >,std::_List_val<std::_List_simple_types<Raven_Bot *> >,1><>
_TEXT	ENDS
; Function compile flags: /Odtp /RTCsu
; File C:\Program Files (x86)\Microsoft Visual Studio\2019\Community\VC\Tools\MSVC\14.21.27702\include\xstddef
;	COMDAT ??$addressof@V?$list@PAVRaven_Bot@@V?$allocator@PAVRaven_Bot@@@std@@@std@@@std@@YAPAV?$list@PAVRaven_Bot@@V?$allocator@PAVRaven_Bot@@@std@@@0@AAV10@@Z
_TEXT	SEGMENT
__Val$ = 8						; size = 4
??$addressof@V?$list@PAVRaven_Bot@@V?$allocator@PAVRaven_Bot@@@std@@@std@@@std@@YAPAV?$list@PAVRaven_Bot@@V?$allocator@PAVRaven_Bot@@@std@@@0@AAV10@@Z PROC ; std::addressof<std::list<Raven_Bot *,std::allocator<Raven_Bot *> > >, COMDAT

; 280  : _NODISCARD constexpr _Ty* addressof(_Ty& _Val) noexcept { // return address of _Val

	push	ebp
	mov	ebp, esp

; 281  :     return __builtin_addressof(_Val);

	mov	eax, DWORD PTR __Val$[ebp]

; 282  : }

	pop	ebp
	ret	0
??$addressof@V?$list@PAVRaven_Bot@@V?$allocator@PAVRaven_Bot@@@std@@@std@@@std@@YAPAV?$list@PAVRaven_Bot@@V?$allocator@PAVRaven_Bot@@@std@@@0@AAV10@@Z ENDP ; std::addressof<std::list<Raven_Bot *,std::allocator<Raven_Bot *> > >
_TEXT	ENDS
; Function compile flags: /Odtp /RTCsu
; File C:\Program Files (x86)\Microsoft Visual Studio\2019\Community\VC\Tools\MSVC\14.21.27702\include\xmemory0
;	COMDAT ??$_Delete_plain@V?$allocator@U_Container_proxy@std@@@std@@@std@@YAXAAV?$allocator@U_Container_proxy@std@@@0@QAU_Container_proxy@0@@Z
_TEXT	SEGMENT
__$EHRec$ = -12						; size = 12
__Al$ = 8						; size = 4
__Ptr$ = 12						; size = 4
??$_Delete_plain@V?$allocator@U_Container_proxy@std@@@std@@@std@@YAXAAV?$allocator@U_Container_proxy@std@@@0@QAU_Container_proxy@0@@Z PROC ; std::_Delete_plain<std::allocator<std::_Container_proxy> >, COMDAT

; 1175 :     _Alloc& _Al, typename _Alloc::value_type* const _Ptr) noexcept { // destroy and deallocate _Ptr using _Al

	push	ebp
	mov	ebp, esp
	push	-1
	push	__ehhandler$??$_Delete_plain@V?$allocator@U_Container_proxy@std@@@std@@@std@@YAXAAV?$allocator@U_Container_proxy@std@@@0@QAU_Container_proxy@0@@Z
	mov	eax, DWORD PTR fs:0
	push	eax
	mov	eax, DWORD PTR ___security_cookie
	xor	eax, ebp
	push	eax
	lea	eax, DWORD PTR __$EHRec$[ebp]
	mov	DWORD PTR fs:0, eax

; 1176 :     allocator_traits<_Alloc>::destroy(_Al, _Ptr);

	mov	eax, DWORD PTR __Ptr$[ebp]
	push	eax
	mov	ecx, DWORD PTR __Al$[ebp]
	push	ecx
	call	??$destroy@U_Container_proxy@std@@@?$_Default_allocator_traits@V?$allocator@U_Container_proxy@std@@@std@@@std@@SAXAAV?$allocator@U_Container_proxy@std@@@1@QAU_Container_proxy@1@@Z ; std::_Default_allocator_traits<std::allocator<std::_Container_proxy> >::destroy<std::_Container_proxy>
	add	esp, 8

; 1177 :     _Deallocate_plain(_Al, _Ptr);

	mov	edx, DWORD PTR __Ptr$[ebp]
	push	edx
	mov	eax, DWORD PTR __Al$[ebp]
	push	eax
	call	??$_Deallocate_plain@V?$allocator@U_Container_proxy@std@@@std@@@std@@YAXAAV?$allocator@U_Container_proxy@std@@@0@QAU_Container_proxy@0@@Z ; std::_Deallocate_plain<std::allocator<std::_Container_proxy> >
	add	esp, 8

; 1178 : }

	mov	ecx, DWORD PTR __$EHRec$[ebp]
	mov	DWORD PTR fs:0, ecx
	pop	ecx
	add	esp, 12					; 0000000cH
	cmp	ebp, esp
	call	__RTC_CheckEsp
	mov	esp, ebp
	pop	ebp
	ret	0
_TEXT	ENDS
;	COMDAT text$x
text$x	SEGMENT
__ehhandler$??$_Delete_plain@V?$allocator@U_Container_proxy@std@@@std@@@std@@YAXAAV?$allocator@U_Container_proxy@std@@@0@QAU_Container_proxy@0@@Z:
	mov	edx, DWORD PTR [esp+8]
	lea	eax, DWORD PTR [edx+12]
	mov	ecx, DWORD PTR [edx-4]
	xor	ecx, eax
	call	@__security_check_cookie@4
	mov	eax, OFFSET __ehfuncinfo$??$_Delete_plain@V?$allocator@U_Container_proxy@std@@@std@@@std@@YAXAAV?$allocator@U_Container_proxy@std@@@0@QAU_Container_proxy@0@@Z
	jmp	___CxxFrameHandler3
text$x	ENDS
??$_Delete_plain@V?$allocator@U_Container_proxy@std@@@std@@@std@@YAXAAV?$allocator@U_Container_proxy@std@@@0@QAU_Container_proxy@0@@Z ENDP ; std::_Delete_plain<std::allocator<std::_Container_proxy> >
; Function compile flags: /Odtp /RTCsu
; File C:\Program Files (x86)\Microsoft Visual Studio\2019\Community\VC\Tools\MSVC\14.21.27702\include\xmemory0
;	COMDAT ??$?0U?$_List_node@PAVRaven_Bot@@PAX@std@@@?$allocator@U_Container_proxy@std@@@std@@QAE@ABV?$allocator@U?$_List_node@PAVRaven_Bot@@PAX@std@@@1@@Z
_TEXT	SEGMENT
_this$ = -4						; size = 4
___formal$ = 8						; size = 4
??$?0U?$_List_node@PAVRaven_Bot@@PAX@std@@@?$allocator@U_Container_proxy@std@@@std@@QAE@ABV?$allocator@U?$_List_node@PAVRaven_Bot@@PAX@std@@@1@@Z PROC ; std::allocator<std::_Container_proxy>::allocator<std::_Container_proxy><std::_List_node<Raven_Bot *,void *> >, COMDAT
; _this$ = ecx

; 921  :     constexpr allocator(const allocator<_Other>&) noexcept { // construct from a related allocator (do nothing)

	push	ebp
	mov	ebp, esp
	push	ecx
	mov	DWORD PTR [ebp-4], -858993460		; ccccccccH
	mov	DWORD PTR _this$[ebp], ecx

; 922  :     }

	mov	eax, DWORD PTR _this$[ebp]
	mov	esp, ebp
	pop	ebp
	ret	4
??$?0U?$_List_node@PAVRaven_Bot@@PAX@std@@@?$allocator@U_Container_proxy@std@@@std@@QAE@ABV?$allocator@U?$_List_node@PAVRaven_Bot@@PAX@std@@@1@@Z ENDP ; std::allocator<std::_Container_proxy>::allocator<std::_Container_proxy><std::_List_node<Raven_Bot *,void *> >
_TEXT	ENDS
; Function compile flags: /Odtp /RTCsu
; File C:\Program Files (x86)\Microsoft Visual Studio\2019\Community\VC\Tools\MSVC\14.21.27702\include\xmemory0
;	COMDAT ?allocate@?$allocator@U_Container_proxy@std@@@std@@QAEPAU_Container_proxy@2@I@Z
_TEXT	SEGMENT
_this$ = -4						; size = 4
__Count$ = 8						; size = 4
?allocate@?$allocator@U_Container_proxy@std@@@std@@QAEPAU_Container_proxy@2@I@Z PROC ; std::allocator<std::_Container_proxy>::allocate, COMDAT
; _this$ = ecx

; 930  :         _CRT_GUARDOVERFLOW const size_t _Count) { // allocate array of _Count elements

	push	ebp
	mov	ebp, esp
	push	ecx
	mov	DWORD PTR [ebp-4], -858993460		; ccccccccH
	mov	DWORD PTR _this$[ebp], ecx

; 931  :         return static_cast<_Ty*>(_Allocate<_New_alignof<_Ty>>(_Get_size_of_n<sizeof(_Ty)>(_Count)));

	mov	eax, DWORD PTR __Count$[ebp]
	push	eax
	call	??$_Get_size_of_n@$07@std@@YAII@Z	; std::_Get_size_of_n<8>
	add	esp, 4
	push	eax
	call	??$_Allocate@$07U_Default_allocate_traits@std@@$0A@@std@@YAPAXI@Z ; std::_Allocate<8,std::_Default_allocate_traits,0>
	add	esp, 4

; 932  :     }

	add	esp, 4
	cmp	ebp, esp
	call	__RTC_CheckEsp
	mov	esp, ebp
	pop	ebp
	ret	4
?allocate@?$allocator@U_Container_proxy@std@@@std@@QAEPAU_Container_proxy@2@I@Z ENDP ; std::allocator<std::_Container_proxy>::allocate
_TEXT	ENDS
; Function compile flags: /Odtp /RTCsu
; File C:\Program Files (x86)\Microsoft Visual Studio\2019\Community\VC\Tools\MSVC\14.21.27702\include\xstddef
;	COMDAT ??$addressof@V?$_List_val@U?$_List_simple_types@PAVRaven_Bot@@@std@@@std@@@std@@YAPAV?$_List_val@U?$_List_simple_types@PAVRaven_Bot@@@std@@@0@AAV10@@Z
_TEXT	SEGMENT
__Val$ = 8						; size = 4
??$addressof@V?$_List_val@U?$_List_simple_types@PAVRaven_Bot@@@std@@@std@@@std@@YAPAV?$_List_val@U?$_List_simple_types@PAVRaven_Bot@@@std@@@0@AAV10@@Z PROC ; std::addressof<std::_List_val<std::_List_simple_types<Raven_Bot *> > >, COMDAT

; 280  : _NODISCARD constexpr _Ty* addressof(_Ty& _Val) noexcept { // return address of _Val

	push	ebp
	mov	ebp, esp

; 281  :     return __builtin_addressof(_Val);

	mov	eax, DWORD PTR __Val$[ebp]

; 282  : }

	pop	ebp
	ret	0
??$addressof@V?$_List_val@U?$_List_simple_types@PAVRaven_Bot@@@std@@@std@@@std@@YAPAV?$_List_val@U?$_List_simple_types@PAVRaven_Bot@@@std@@@0@AAV10@@Z ENDP ; std::addressof<std::_List_val<std::_List_simple_types<Raven_Bot *> > >
_TEXT	ENDS
; Function compile flags: /Odtp /RTCsu
;	COMDAT ??1?$_List_iterator@V?$_List_val@U?$_List_simple_types@PAVRaven_Bot@@@std@@@std@@@std@@QAE@XZ
_TEXT	SEGMENT
_this$ = -4						; size = 4
??1?$_List_iterator@V?$_List_val@U?$_List_simple_types@PAVRaven_Bot@@@std@@@std@@@std@@QAE@XZ PROC ; std::_List_iterator<std::_List_val<std::_List_simple_types<Raven_Bot *> > >::~_List_iterator<std::_List_val<std::_List_simple_types<Raven_Bot *> > >, COMDAT
; _this$ = ecx
	push	ebp
	mov	ebp, esp
	push	ecx
	mov	DWORD PTR [ebp-4], -858993460		; ccccccccH
	mov	DWORD PTR _this$[ebp], ecx
	mov	ecx, DWORD PTR _this$[ebp]
	call	??1?$_List_const_iterator@V?$_List_val@U?$_List_simple_types@PAVRaven_Bot@@@std@@@std@@@std@@QAE@XZ
	add	esp, 4
	cmp	ebp, esp
	call	__RTC_CheckEsp
	mov	esp, ebp
	pop	ebp
	ret	0
??1?$_List_iterator@V?$_List_val@U?$_List_simple_types@PAVRaven_Bot@@@std@@@std@@@std@@QAE@XZ ENDP ; std::_List_iterator<std::_List_val<std::_List_simple_types<Raven_Bot *> > >::~_List_iterator<std::_List_val<std::_List_simple_types<Raven_Bot *> > >
_TEXT	ENDS
; Function compile flags: /Odtp /RTCsu
; File C:\Program Files (x86)\Microsoft Visual Studio\2019\Community\VC\Tools\MSVC\14.21.27702\include\list
;	COMDAT ??0?$_List_iterator@V?$_List_val@U?$_List_simple_types@PAVRaven_Bot@@@std@@@std@@@std@@QAE@PAU?$_List_node@PAVRaven_Bot@@PAX@1@PBV?$_List_val@U?$_List_simple_types@PAVRaven_Bot@@@std@@@1@@Z
_TEXT	SEGMENT
_this$ = -4						; size = 4
__Pnode$ = 8						; size = 4
__Plist$ = 12						; size = 4
??0?$_List_iterator@V?$_List_val@U?$_List_simple_types@PAVRaven_Bot@@@std@@@std@@@std@@QAE@PAU?$_List_node@PAVRaven_Bot@@PAX@1@PBV?$_List_val@U?$_List_simple_types@PAVRaven_Bot@@@std@@@1@@Z PROC ; std::_List_iterator<std::_List_val<std::_List_simple_types<Raven_Bot *> > >::_List_iterator<std::_List_val<std::_List_simple_types<Raven_Bot *> > >, COMDAT
; _this$ = ecx

; 248  :     _List_iterator(_Nodeptr _Pnode, const _Mylist* _Plist)

	push	ebp
	mov	ebp, esp
	push	ecx
	mov	DWORD PTR [ebp-4], -858993460		; ccccccccH
	mov	DWORD PTR _this$[ebp], ecx

; 249  :         : _Mybase(_Pnode, _Plist) { // construct with node pointer _Pnode

	mov	eax, DWORD PTR __Plist$[ebp]
	push	eax
	mov	ecx, DWORD PTR __Pnode$[ebp]
	push	ecx
	mov	ecx, DWORD PTR _this$[ebp]
	call	??0?$_List_const_iterator@V?$_List_val@U?$_List_simple_types@PAVRaven_Bot@@@std@@@std@@@std@@QAE@PAU?$_List_node@PAVRaven_Bot@@PAX@1@PBV?$_List_val@U?$_List_simple_types@PAVRaven_Bot@@@std@@@1@@Z ; std::_List_const_iterator<std::_List_val<std::_List_simple_types<Raven_Bot *> > >::_List_const_iterator<std::_List_val<std::_List_simple_types<Raven_Bot *> > >

; 250  :     }

	mov	eax, DWORD PTR _this$[ebp]
	add	esp, 4
	cmp	ebp, esp
	call	__RTC_CheckEsp
	mov	esp, ebp
	pop	ebp
	ret	8
??0?$_List_iterator@V?$_List_val@U?$_List_simple_types@PAVRaven_Bot@@@std@@@std@@@std@@QAE@PAU?$_List_node@PAVRaven_Bot@@PAX@1@PBV?$_List_val@U?$_List_simple_types@PAVRaven_Bot@@@std@@@1@@Z ENDP ; std::_List_iterator<std::_List_val<std::_List_simple_types<Raven_Bot *> > >::_List_iterator<std::_List_val<std::_List_simple_types<Raven_Bot *> > >
_TEXT	ENDS
; Function compile flags: /Odtp /RTCsu
;	COMDAT ??0?$_List_const_iterator@V?$_List_val@U?$_List_simple_types@PAVRaven_Bot@@@std@@@std@@@std@@QAE@$$QAV01@@Z
_TEXT	SEGMENT
_this$ = -4						; size = 4
___that$ = 8						; size = 4
??0?$_List_const_iterator@V?$_List_val@U?$_List_simple_types@PAVRaven_Bot@@@std@@@std@@@std@@QAE@$$QAV01@@Z PROC ; std::_List_const_iterator<std::_List_val<std::_List_simple_types<Raven_Bot *> > >::_List_const_iterator<std::_List_val<std::_List_simple_types<Raven_Bot *> > >, COMDAT
; _this$ = ecx
	push	ebp
	mov	ebp, esp
	push	ecx
	mov	DWORD PTR [ebp-4], -858993460		; ccccccccH
	mov	DWORD PTR _this$[ebp], ecx
	mov	eax, DWORD PTR ___that$[ebp]
	push	eax
	mov	ecx, DWORD PTR _this$[ebp]
	call	??0?$_List_unchecked_const_iterator@V?$_List_val@U?$_List_simple_types@PAVRaven_Bot@@@std@@@std@@U_Iterator_base12@2@@std@@QAE@$$QAV01@@Z
	mov	eax, DWORD PTR _this$[ebp]
	add	esp, 4
	cmp	ebp, esp
	call	__RTC_CheckEsp
	mov	esp, ebp
	pop	ebp
	ret	4
??0?$_List_const_iterator@V?$_List_val@U?$_List_simple_types@PAVRaven_Bot@@@std@@@std@@@std@@QAE@$$QAV01@@Z ENDP ; std::_List_const_iterator<std::_List_val<std::_List_simple_types<Raven_Bot *> > >::_List_const_iterator<std::_List_val<std::_List_simple_types<Raven_Bot *> > >
_TEXT	ENDS
; Function compile flags: /Odtp /RTCsu
;	COMDAT ??1?$_List_const_iterator@V?$_List_val@U?$_List_simple_types@PAVRaven_Bot@@@std@@@std@@@std@@QAE@XZ
_TEXT	SEGMENT
_this$ = -4						; size = 4
??1?$_List_const_iterator@V?$_List_val@U?$_List_simple_types@PAVRaven_Bot@@@std@@@std@@@std@@QAE@XZ PROC ; std::_List_const_iterator<std::_List_val<std::_List_simple_types<Raven_Bot *> > >::~_List_const_iterator<std::_List_val<std::_List_simple_types<Raven_Bot *> > >, COMDAT
; _this$ = ecx
	push	ebp
	mov	ebp, esp
	push	ecx
	mov	DWORD PTR [ebp-4], -858993460		; ccccccccH
	mov	DWORD PTR _this$[ebp], ecx
	mov	ecx, DWORD PTR _this$[ebp]
	call	??1?$_List_unchecked_const_iterator@V?$_List_val@U?$_List_simple_types@PAVRaven_Bot@@@std@@@std@@U_Iterator_base12@2@@std@@QAE@XZ
	add	esp, 4
	cmp	ebp, esp
	call	__RTC_CheckEsp
	mov	esp, ebp
	pop	ebp
	ret	0
??1?$_List_const_iterator@V?$_List_val@U?$_List_simple_types@PAVRaven_Bot@@@std@@@std@@@std@@QAE@XZ ENDP ; std::_List_const_iterator<std::_List_val<std::_List_simple_types<Raven_Bot *> > >::~_List_const_iterator<std::_List_val<std::_List_simple_types<Raven_Bot *> > >
_TEXT	ENDS
; Function compile flags: /Odtp /RTCsu
; File C:\Program Files (x86)\Microsoft Visual Studio\2019\Community\VC\Tools\MSVC\14.21.27702\include\list
;	COMDAT ??9?$_List_const_iterator@V?$_List_val@U?$_List_simple_types@PAVRaven_Bot@@@std@@@std@@@std@@QBE_NABV01@@Z
_TEXT	SEGMENT
tv69 = -8						; size = 4
_this$ = -4						; size = 4
__Right$ = 8						; size = 4
??9?$_List_const_iterator@V?$_List_val@U?$_List_simple_types@PAVRaven_Bot@@@std@@@std@@@std@@QBE_NABV01@@Z PROC ; std::_List_const_iterator<std::_List_val<std::_List_simple_types<Raven_Bot *> > >::operator!=, COMDAT
; _this$ = ecx

; 211  :     _NODISCARD bool operator!=(const _List_const_iterator& _Right) const { // test for iterator inequality

	push	ebp
	mov	ebp, esp
	sub	esp, 8
	mov	DWORD PTR [ebp-8], -858993460		; ccccccccH
	mov	DWORD PTR [ebp-4], -858993460		; ccccccccH
	mov	DWORD PTR _this$[ebp], ecx

; 212  :         return !(*this == _Right);

	mov	eax, DWORD PTR __Right$[ebp]
	push	eax
	mov	ecx, DWORD PTR _this$[ebp]
	call	??8?$_List_const_iterator@V?$_List_val@U?$_List_simple_types@PAVRaven_Bot@@@std@@@std@@@std@@QBE_NABV01@@Z ; std::_List_const_iterator<std::_List_val<std::_List_simple_types<Raven_Bot *> > >::operator==
	movzx	ecx, al
	test	ecx, ecx
	jne	SHORT $LN3@operator
	mov	DWORD PTR tv69[ebp], 1
	jmp	SHORT $LN4@operator
$LN3@operator:
	mov	DWORD PTR tv69[ebp], 0
$LN4@operator:
	mov	al, BYTE PTR tv69[ebp]

; 213  :     }

	add	esp, 8
	cmp	ebp, esp
	call	__RTC_CheckEsp
	mov	esp, ebp
	pop	ebp
	ret	4
??9?$_List_const_iterator@V?$_List_val@U?$_List_simple_types@PAVRaven_Bot@@@std@@@std@@@std@@QBE_NABV01@@Z ENDP ; std::_List_const_iterator<std::_List_val<std::_List_simple_types<Raven_Bot *> > >::operator!=
_TEXT	ENDS
; Function compile flags: /Odtp /RTCsu
; File C:\Program Files (x86)\Microsoft Visual Studio\2019\Community\VC\Tools\MSVC\14.21.27702\include\list
;	COMDAT ??8?$_List_const_iterator@V?$_List_val@U?$_List_simple_types@PAVRaven_Bot@@@std@@@std@@@std@@QBE_NABV01@@Z
_TEXT	SEGMENT
tv136 = -8						; size = 4
_this$ = -4						; size = 4
__Right$ = 8						; size = 4
??8?$_List_const_iterator@V?$_List_val@U?$_List_simple_types@PAVRaven_Bot@@@std@@@std@@@std@@QBE_NABV01@@Z PROC ; std::_List_const_iterator<std::_List_val<std::_List_simple_types<Raven_Bot *> > >::operator==, COMDAT
; _this$ = ecx

; 203  :     _NODISCARD bool operator==(const _List_const_iterator& _Right) const { // test for iterator equality

	push	ebp
	mov	ebp, esp
	sub	esp, 8
	push	esi
	mov	DWORD PTR [ebp-8], -858993460		; ccccccccH
	mov	DWORD PTR [ebp-4], -858993460		; ccccccccH
	mov	DWORD PTR _this$[ebp], ecx
$LN4@operator:

; 204  : #if _ITERATOR_DEBUG_LEVEL != 0
; 205  :         _STL_VERIFY(this->_Getcont() == _Right._Getcont(), "list iterators incompatible");

	mov	ecx, DWORD PTR _this$[ebp]
	call	?_Getcont@_Iterator_base12@std@@QBEPBU_Container_base12@2@XZ ; std::_Iterator_base12::_Getcont
	mov	esi, eax
	mov	ecx, DWORD PTR __Right$[ebp]
	call	?_Getcont@_Iterator_base12@std@@QBEPBU_Container_base12@2@XZ ; std::_Iterator_base12::_Getcont
	cmp	esi, eax
	jne	SHORT $LN7@operator
	jmp	SHORT $LN2@operator
$LN7@operator:
	push	OFFSET ??_C@_0BM@BALDKKHE@list?5iterators?5incompatible@
	push	OFFSET ??_C@_02DKCKIIND@?$CFs@
	push	0
	push	205					; 000000cdH
	push	OFFSET ??_C@_0GF@EDKJAGDO@C?3?2Program?5Files?5?$CIx86?$CJ?2Microsof@
	push	2
	call	__CrtDbgReport
	add	esp, 24					; 00000018H
	cmp	eax, 1
	jne	SHORT $LN11@operator
	int	3
$LN11@operator:
	push	0
	push	205					; 000000cdH
	push	OFFSET ??_C@_1MK@OEMIBCNG@?$AAC?$AA?3?$AA?2?$AAP?$AAr?$AAo?$AAg?$AAr?$AAa?$AAm?$AA?5?$AAF?$AAi?$AAl?$AAe@
	push	OFFSET ??_C@_1OE@HJIALJKP@?$AAs?$AAt?$AAd?$AA?3?$AA?3?$AA_?$AAL?$AAi?$AAs?$AAt?$AA_?$AAc?$AAo?$AAn?$AAs@
	push	OFFSET ??_C@_1DM@KDLJAKOP@?$AA?$CC?$AAl?$AAi?$AAs?$AAt?$AA?5?$AAi?$AAt?$AAe?$AAr?$AAa?$AAt?$AAo?$AAr?$AAs@
	call	__invalid_parameter
	add	esp, 20					; 00000014H
	xor	ecx, ecx
	jne	SHORT $LN7@operator
$LN2@operator:
	xor	edx, edx
	jne	SHORT $LN4@operator

; 206  : #endif // _ITERATOR_DEBUG_LEVEL != 0
; 207  : 
; 208  :         return this->_Ptr == _Right._Ptr;

	mov	eax, DWORD PTR _this$[ebp]
	mov	ecx, DWORD PTR __Right$[ebp]
	mov	edx, DWORD PTR [eax+8]
	cmp	edx, DWORD PTR [ecx+8]
	jne	SHORT $LN12@operator
	mov	DWORD PTR tv136[ebp], 1
	jmp	SHORT $LN13@operator
$LN12@operator:
	mov	DWORD PTR tv136[ebp], 0
$LN13@operator:
	mov	al, BYTE PTR tv136[ebp]

; 209  :     }

	pop	esi
	add	esp, 8
	cmp	ebp, esp
	call	__RTC_CheckEsp
	mov	esp, ebp
	pop	ebp
	ret	4
??8?$_List_const_iterator@V?$_List_val@U?$_List_simple_types@PAVRaven_Bot@@@std@@@std@@@std@@QBE_NABV01@@Z ENDP ; std::_List_const_iterator<std::_List_val<std::_List_simple_types<Raven_Bot *> > >::operator==
_TEXT	ENDS
; Function compile flags: /Odtp /RTCsu
; File C:\Program Files (x86)\Microsoft Visual Studio\2019\Community\VC\Tools\MSVC\14.21.27702\include\list
;	COMDAT ??E?$_List_const_iterator@V?$_List_val@U?$_List_simple_types@PAVRaven_Bot@@@std@@@std@@@std@@QAEAAV01@XZ
_TEXT	SEGMENT
__Mycont$ = -8						; size = 4
_this$ = -4						; size = 4
??E?$_List_const_iterator@V?$_List_val@U?$_List_simple_types@PAVRaven_Bot@@@std@@@std@@@std@@QAEAAV01@XZ PROC ; std::_List_const_iterator<std::_List_val<std::_List_simple_types<Raven_Bot *> > >::operator++, COMDAT
; _this$ = ecx

; 168  :     _List_const_iterator& operator++() { // preincrement

	push	ebp
	mov	ebp, esp
	sub	esp, 8
	mov	DWORD PTR [ebp-8], -858993460		; ccccccccH
	mov	DWORD PTR [ebp-4], -858993460		; ccccccccH
	mov	DWORD PTR _this$[ebp], ecx

; 169  : #if _ITERATOR_DEBUG_LEVEL != 0
; 170  :         const auto _Mycont = static_cast<const _Mylist*>(this->_Getcont());

	mov	ecx, DWORD PTR _this$[ebp]
	call	?_Getcont@_Iterator_base12@std@@QBEPBU_Container_base12@2@XZ ; std::_Iterator_base12::_Getcont
	mov	DWORD PTR __Mycont$[ebp], eax
$LN4@operator:

; 171  :         _STL_ASSERT(_Mycont, "cannot increment value-initialized list iterator");

	cmp	DWORD PTR __Mycont$[ebp], 0
	je	SHORT $LN7@operator
	jmp	SHORT $LN2@operator
$LN7@operator:
	push	OFFSET ??_C@_0DB@ENBCPNKO@cannot?5increment?5value?9initiali@
	push	OFFSET ??_C@_02DKCKIIND@?$CFs@
	push	0
	push	171					; 000000abH
	push	OFFSET ??_C@_0GF@EDKJAGDO@C?3?2Program?5Files?5?$CIx86?$CJ?2Microsof@
	push	2
	call	__CrtDbgReport
	add	esp, 24					; 00000018H
	cmp	eax, 1
	jne	SHORT $LN19@operator
	int	3
$LN19@operator:
	push	0
	push	171					; 000000abH
	push	OFFSET ??_C@_1MK@OEMIBCNG@?$AAC?$AA?3?$AA?2?$AAP?$AAr?$AAo?$AAg?$AAr?$AAa?$AAm?$AA?5?$AAF?$AAi?$AAl?$AAe@
	push	OFFSET ??_C@_1OE@NJHNFAGK@?$AAs?$AAt?$AAd?$AA?3?$AA?3?$AA_?$AAL?$AAi?$AAs?$AAt?$AA_?$AAc?$AAo?$AAn?$AAs@
	push	OFFSET ??_C@_1GG@JLMAGPNK@?$AA?$CC?$AAc?$AAa?$AAn?$AAn?$AAo?$AAt?$AA?5?$AAi?$AAn?$AAc?$AAr?$AAe?$AAm?$AAe@
	call	__invalid_parameter
	add	esp, 20					; 00000014H
	xor	ecx, ecx
	jne	SHORT $LN7@operator
$LN2@operator:
	xor	edx, edx
	jne	SHORT $LN4@operator
$LN10@operator:

; 172  :         _STL_VERIFY(this->_Ptr != _Mycont->_Myhead, "cannot increment end list iterator");

	mov	eax, DWORD PTR _this$[ebp]
	mov	ecx, DWORD PTR __Mycont$[ebp]
	mov	edx, DWORD PTR [eax+8]
	cmp	edx, DWORD PTR [ecx+4]
	je	SHORT $LN13@operator
	jmp	SHORT $LN8@operator
$LN13@operator:
	push	OFFSET ??_C@_0CD@PMFMCEG@cannot?5increment?5end?5list?5itera@
	push	OFFSET ??_C@_02DKCKIIND@?$CFs@
	push	0
	push	172					; 000000acH
	push	OFFSET ??_C@_0GF@EDKJAGDO@C?3?2Program?5Files?5?$CIx86?$CJ?2Microsof@
	push	2
	call	__CrtDbgReport
	add	esp, 24					; 00000018H
	cmp	eax, 1
	jne	SHORT $LN20@operator
	int	3
$LN20@operator:
	push	0
	push	172					; 000000acH
	push	OFFSET ??_C@_1MK@OEMIBCNG@?$AAC?$AA?3?$AA?2?$AAP?$AAr?$AAo?$AAg?$AAr?$AAa?$AAm?$AA?5?$AAF?$AAi?$AAl?$AAe@
	push	OFFSET ??_C@_1OE@NJHNFAGK@?$AAs?$AAt?$AAd?$AA?3?$AA?3?$AA_?$AAL?$AAi?$AAs?$AAt?$AA_?$AAc?$AAo?$AAn?$AAs@
	push	OFFSET ??_C@_1EK@OKKCFDJN@?$AA?$CC?$AAc?$AAa?$AAn?$AAn?$AAo?$AAt?$AA?5?$AAi?$AAn?$AAc?$AAr?$AAe?$AAm?$AAe@
	call	__invalid_parameter
	add	esp, 20					; 00000014H
	xor	ecx, ecx
	jne	SHORT $LN13@operator
$LN8@operator:
	xor	edx, edx
	jne	SHORT $LN10@operator

; 173  : #endif // _ITERATOR_DEBUG_LEVEL != 0
; 174  : 
; 175  :         this->_Ptr = this->_Ptr->_Next;

	mov	eax, DWORD PTR _this$[ebp]
	mov	ecx, DWORD PTR [eax+8]
	mov	edx, DWORD PTR _this$[ebp]
	mov	eax, DWORD PTR [ecx]
	mov	DWORD PTR [edx+8], eax

; 176  :         return *this;

	mov	eax, DWORD PTR _this$[ebp]

; 177  :     }

	add	esp, 8
	cmp	ebp, esp
	call	__RTC_CheckEsp
	mov	esp, ebp
	pop	ebp
	ret	0
??E?$_List_const_iterator@V?$_List_val@U?$_List_simple_types@PAVRaven_Bot@@@std@@@std@@@std@@QAEAAV01@XZ ENDP ; std::_List_const_iterator<std::_List_val<std::_List_simple_types<Raven_Bot *> > >::operator++
_TEXT	ENDS
; Function compile flags: /Odtp /RTCsu
; File C:\Program Files (x86)\Microsoft Visual Studio\2019\Community\VC\Tools\MSVC\14.21.27702\include\list
;	COMDAT ??D?$_List_const_iterator@V?$_List_val@U?$_List_simple_types@PAVRaven_Bot@@@std@@@std@@@std@@QBEABQAVRaven_Bot@@XZ
_TEXT	SEGMENT
__Mycont$ = -8						; size = 4
_this$ = -4						; size = 4
??D?$_List_const_iterator@V?$_List_val@U?$_List_simple_types@PAVRaven_Bot@@@std@@@std@@@std@@QBEABQAVRaven_Bot@@XZ PROC ; std::_List_const_iterator<std::_List_val<std::_List_simple_types<Raven_Bot *> > >::operator*, COMDAT
; _this$ = ecx

; 154  :     _NODISCARD reference operator*() const { // return designated value

	push	ebp
	mov	ebp, esp
	sub	esp, 8
	mov	DWORD PTR [ebp-8], -858993460		; ccccccccH
	mov	DWORD PTR [ebp-4], -858993460		; ccccccccH
	mov	DWORD PTR _this$[ebp], ecx

; 155  : #if _ITERATOR_DEBUG_LEVEL != 0
; 156  :         const auto _Mycont = static_cast<const _Mylist*>(this->_Getcont());

	mov	ecx, DWORD PTR _this$[ebp]
	call	?_Getcont@_Iterator_base12@std@@QBEPBU_Container_base12@2@XZ ; std::_Iterator_base12::_Getcont
	mov	DWORD PTR __Mycont$[ebp], eax
$LN4@operator:

; 157  :         _STL_ASSERT(_Mycont, "cannot dereference value-initialized list iterator");

	cmp	DWORD PTR __Mycont$[ebp], 0
	je	SHORT $LN7@operator
	jmp	SHORT $LN2@operator
$LN7@operator:
	push	OFFSET ??_C@_0DD@MBIHGLJE@cannot?5dereference?5value?9initia@
	push	OFFSET ??_C@_02DKCKIIND@?$CFs@
	push	0
	push	157					; 0000009dH
	push	OFFSET ??_C@_0GF@EDKJAGDO@C?3?2Program?5Files?5?$CIx86?$CJ?2Microsof@
	push	2
	call	__CrtDbgReport
	add	esp, 24					; 00000018H
	cmp	eax, 1
	jne	SHORT $LN19@operator
	int	3
$LN19@operator:
	push	0
	push	157					; 0000009dH
	push	OFFSET ??_C@_1MK@OEMIBCNG@?$AAC?$AA?3?$AA?2?$AAP?$AAr?$AAo?$AAg?$AAr?$AAa?$AAm?$AA?5?$AAF?$AAi?$AAl?$AAe@
	push	OFFSET ??_C@_1OC@BFEHCKCD@?$AAs?$AAt?$AAd?$AA?3?$AA?3?$AA_?$AAL?$AAi?$AAs?$AAt?$AA_?$AAc?$AAo?$AAn?$AAs@
	push	OFFSET ??_C@_1GK@NKIMOCIG@?$AA?$CC?$AAc?$AAa?$AAn?$AAn?$AAo?$AAt?$AA?5?$AAd?$AAe?$AAr?$AAe?$AAf?$AAe?$AAr@
	call	__invalid_parameter
	add	esp, 20					; 00000014H
	xor	ecx, ecx
	jne	SHORT $LN7@operator
$LN2@operator:
	xor	edx, edx
	jne	SHORT $LN4@operator
$LN10@operator:

; 158  :         _STL_VERIFY(this->_Ptr != _Mycont->_Myhead, "cannot dereference end list iterator");

	mov	eax, DWORD PTR _this$[ebp]
	mov	ecx, DWORD PTR __Mycont$[ebp]
	mov	edx, DWORD PTR [eax+8]
	cmp	edx, DWORD PTR [ecx+4]
	je	SHORT $LN13@operator
	jmp	SHORT $LN8@operator
$LN13@operator:
	push	OFFSET ??_C@_0CF@JCBFHMPL@cannot?5dereference?5end?5list?5ite@
	push	OFFSET ??_C@_02DKCKIIND@?$CFs@
	push	0
	push	158					; 0000009eH
	push	OFFSET ??_C@_0GF@EDKJAGDO@C?3?2Program?5Files?5?$CIx86?$CJ?2Microsof@
	push	2
	call	__CrtDbgReport
	add	esp, 24					; 00000018H
	cmp	eax, 1
	jne	SHORT $LN20@operator
	int	3
$LN20@operator:
	push	0
	push	158					; 0000009eH
	push	OFFSET ??_C@_1MK@OEMIBCNG@?$AAC?$AA?3?$AA?2?$AAP?$AAr?$AAo?$AAg?$AAr?$AAa?$AAm?$AA?5?$AAF?$AAi?$AAl?$AAe@
	push	OFFSET ??_C@_1OC@BFEHCKCD@?$AAs?$AAt?$AAd?$AA?3?$AA?3?$AA_?$AAL?$AAi?$AAs?$AAt?$AA_?$AAc?$AAo?$AAn?$AAs@
	push	OFFSET ??_C@_1EO@CNEFBDCF@?$AA?$CC?$AAc?$AAa?$AAn?$AAn?$AAo?$AAt?$AA?5?$AAd?$AAe?$AAr?$AAe?$AAf?$AAe?$AAr@
	call	__invalid_parameter
	add	esp, 20					; 00000014H
	xor	ecx, ecx
	jne	SHORT $LN13@operator
$LN8@operator:
	xor	edx, edx
	jne	SHORT $LN10@operator

; 159  : #endif // _ITERATOR_DEBUG_LEVEL != 0
; 160  : 
; 161  :         return this->_Ptr->_Myval;

	mov	eax, DWORD PTR _this$[ebp]
	mov	eax, DWORD PTR [eax+8]
	add	eax, 8

; 162  :     }

	add	esp, 8
	cmp	ebp, esp
	call	__RTC_CheckEsp
	mov	esp, ebp
	pop	ebp
	ret	0
??D?$_List_const_iterator@V?$_List_val@U?$_List_simple_types@PAVRaven_Bot@@@std@@@std@@@std@@QBEABQAVRaven_Bot@@XZ ENDP ; std::_List_const_iterator<std::_List_val<std::_List_simple_types<Raven_Bot *> > >::operator*
_TEXT	ENDS
; Function compile flags: /Odtp /RTCsu
; File C:\Program Files (x86)\Microsoft Visual Studio\2019\Community\VC\Tools\MSVC\14.21.27702\include\list
;	COMDAT ??0?$_List_const_iterator@V?$_List_val@U?$_List_simple_types@PAVRaven_Bot@@@std@@@std@@@std@@QAE@PAU?$_List_node@PAVRaven_Bot@@PAX@1@PBV?$_List_val@U?$_List_simple_types@PAVRaven_Bot@@@std@@@1@@Z
_TEXT	SEGMENT
_this$ = -4						; size = 4
__Pnode$ = 8						; size = 4
__Plist$ = 12						; size = 4
??0?$_List_const_iterator@V?$_List_val@U?$_List_simple_types@PAVRaven_Bot@@@std@@@std@@@std@@QAE@PAU?$_List_node@PAVRaven_Bot@@PAX@1@PBV?$_List_val@U?$_List_simple_types@PAVRaven_Bot@@@std@@@1@@Z PROC ; std::_List_const_iterator<std::_List_val<std::_List_simple_types<Raven_Bot *> > >::_List_const_iterator<std::_List_val<std::_List_simple_types<Raven_Bot *> > >, COMDAT
; _this$ = ecx

; 150  :     _List_const_iterator(_Nodeptr _Pnode, const _Mylist* _Plist)

	push	ebp
	mov	ebp, esp
	push	ecx
	mov	DWORD PTR [ebp-4], -858993460		; ccccccccH
	mov	DWORD PTR _this$[ebp], ecx

; 151  :         : _Mybase(_Pnode, _Plist) { // construct with node pointer _Pnode

	mov	eax, DWORD PTR __Plist$[ebp]
	push	eax
	mov	ecx, DWORD PTR __Pnode$[ebp]
	push	ecx
	mov	ecx, DWORD PTR _this$[ebp]
	call	??0?$_List_unchecked_const_iterator@V?$_List_val@U?$_List_simple_types@PAVRaven_Bot@@@std@@@std@@U_Iterator_base12@2@@std@@QAE@PAU?$_List_node@PAVRaven_Bot@@PAX@1@PBV?$_List_val@U?$_List_simple_types@PAVRaven_Bot@@@std@@@1@@Z ; std::_List_unchecked_const_iterator<std::_List_val<std::_List_simple_types<Raven_Bot *> >,std::_Iterator_base12>::_List_unchecked_const_iterator<std::_List_val<std::_List_simple_types<Raven_Bot *> >,std::_Iterator_base12>

; 152  :     }

	mov	eax, DWORD PTR _this$[ebp]
	add	esp, 4
	cmp	ebp, esp
	call	__RTC_CheckEsp
	mov	esp, ebp
	pop	ebp
	ret	8
??0?$_List_const_iterator@V?$_List_val@U?$_List_simple_types@PAVRaven_Bot@@@std@@@std@@@std@@QAE@PAU?$_List_node@PAVRaven_Bot@@PAX@1@PBV?$_List_val@U?$_List_simple_types@PAVRaven_Bot@@@std@@@1@@Z ENDP ; std::_List_const_iterator<std::_List_val<std::_List_simple_types<Raven_Bot *> > >::_List_const_iterator<std::_List_val<std::_List_simple_types<Raven_Bot *> > >
_TEXT	ENDS
; Function compile flags: /Odtp /RTCsu
;	COMDAT ??0?$_List_unchecked_const_iterator@V?$_List_val@U?$_List_simple_types@PAVRaven_Bot@@@std@@@std@@U_Iterator_base12@2@@std@@QAE@$$QAV01@@Z
_TEXT	SEGMENT
_this$ = -4						; size = 4
___that$ = 8						; size = 4
??0?$_List_unchecked_const_iterator@V?$_List_val@U?$_List_simple_types@PAVRaven_Bot@@@std@@@std@@U_Iterator_base12@2@@std@@QAE@$$QAV01@@Z PROC ; std::_List_unchecked_const_iterator<std::_List_val<std::_List_simple_types<Raven_Bot *> >,std::_Iterator_base12>::_List_unchecked_const_iterator<std::_List_val<std::_List_simple_types<Raven_Bot *> >,std::_Iterator_base12>, COMDAT
; _this$ = ecx
	push	ebp
	mov	ebp, esp
	push	ecx
	mov	DWORD PTR [ebp-4], -858993460		; ccccccccH
	mov	DWORD PTR _this$[ebp], ecx
	mov	eax, DWORD PTR ___that$[ebp]
	push	eax
	mov	ecx, DWORD PTR _this$[ebp]
	call	??0_Iterator_base12@std@@QAE@ABU01@@Z	; std::_Iterator_base12::_Iterator_base12
	mov	ecx, DWORD PTR _this$[ebp]
	mov	edx, DWORD PTR ___that$[ebp]
	mov	eax, DWORD PTR [edx+8]
	mov	DWORD PTR [ecx+8], eax
	mov	eax, DWORD PTR _this$[ebp]
	add	esp, 4
	cmp	ebp, esp
	call	__RTC_CheckEsp
	mov	esp, ebp
	pop	ebp
	ret	4
??0?$_List_unchecked_const_iterator@V?$_List_val@U?$_List_simple_types@PAVRaven_Bot@@@std@@@std@@U_Iterator_base12@2@@std@@QAE@$$QAV01@@Z ENDP ; std::_List_unchecked_const_iterator<std::_List_val<std::_List_simple_types<Raven_Bot *> >,std::_Iterator_base12>::_List_unchecked_const_iterator<std::_List_val<std::_List_simple_types<Raven_Bot *> >,std::_Iterator_base12>
_TEXT	ENDS
; Function compile flags: /Odtp /RTCsu
;	COMDAT ??1?$_List_unchecked_const_iterator@V?$_List_val@U?$_List_simple_types@PAVRaven_Bot@@@std@@@std@@U_Iterator_base12@2@@std@@QAE@XZ
_TEXT	SEGMENT
_this$ = -4						; size = 4
??1?$_List_unchecked_const_iterator@V?$_List_val@U?$_List_simple_types@PAVRaven_Bot@@@std@@@std@@U_Iterator_base12@2@@std@@QAE@XZ PROC ; std::_List_unchecked_const_iterator<std::_List_val<std::_List_simple_types<Raven_Bot *> >,std::_Iterator_base12>::~_List_unchecked_const_iterator<std::_List_val<std::_List_simple_types<Raven_Bot *> >,std::_Iterator_base12>, COMDAT
; _this$ = ecx
	push	ebp
	mov	ebp, esp
	push	ecx
	mov	DWORD PTR [ebp-4], -858993460		; ccccccccH
	mov	DWORD PTR _this$[ebp], ecx
	mov	ecx, DWORD PTR _this$[ebp]
	call	??1_Iterator_base12@std@@QAE@XZ		; std::_Iterator_base12::~_Iterator_base12
	add	esp, 4
	cmp	ebp, esp
	call	__RTC_CheckEsp
	mov	esp, ebp
	pop	ebp
	ret	0
??1?$_List_unchecked_const_iterator@V?$_List_val@U?$_List_simple_types@PAVRaven_Bot@@@std@@@std@@U_Iterator_base12@2@@std@@QAE@XZ ENDP ; std::_List_unchecked_const_iterator<std::_List_val<std::_List_simple_types<Raven_Bot *> >,std::_Iterator_base12>::~_List_unchecked_const_iterator<std::_List_val<std::_List_simple_types<Raven_Bot *> >,std::_Iterator_base12>
_TEXT	ENDS
; Function compile flags: /Odtp /RTCsu
; File C:\Program Files (x86)\Microsoft Visual Studio\2019\Community\VC\Tools\MSVC\14.21.27702\include\list
;	COMDAT ??0?$_List_unchecked_const_iterator@V?$_List_val@U?$_List_simple_types@PAVRaven_Bot@@@std@@@std@@U_Iterator_base12@2@@std@@QAE@PAU?$_List_node@PAVRaven_Bot@@PAX@1@PBV?$_List_val@U?$_List_simple_types@PAVRaven_Bot@@@std@@@1@@Z
_TEXT	SEGMENT
_this$ = -4						; size = 4
__Pnode$ = 8						; size = 4
__Plist$ = 12						; size = 4
??0?$_List_unchecked_const_iterator@V?$_List_val@U?$_List_simple_types@PAVRaven_Bot@@@std@@@std@@U_Iterator_base12@2@@std@@QAE@PAU?$_List_node@PAVRaven_Bot@@PAX@1@PBV?$_List_val@U?$_List_simple_types@PAVRaven_Bot@@@std@@@1@@Z PROC ; std::_List_unchecked_const_iterator<std::_List_val<std::_List_simple_types<Raven_Bot *> >,std::_Iterator_base12>::_List_unchecked_const_iterator<std::_List_val<std::_List_simple_types<Raven_Bot *> >,std::_Iterator_base12>, COMDAT
; _this$ = ecx

; 36   :     _List_unchecked_const_iterator(_Nodeptr _Pnode, const _Mylist* _Plist)

	push	ebp
	mov	ebp, esp
	push	ecx
	mov	DWORD PTR [ebp-4], -858993460		; ccccccccH
	mov	DWORD PTR _this$[ebp], ecx

; 37   :         : _Ptr(_Pnode) { // construct with node pointer _Pnode

	mov	ecx, DWORD PTR _this$[ebp]
	call	??0_Iterator_base12@std@@QAE@XZ		; std::_Iterator_base12::_Iterator_base12
	mov	eax, DWORD PTR _this$[ebp]
	mov	ecx, DWORD PTR __Pnode$[ebp]
	mov	DWORD PTR [eax+8], ecx

; 38   :         this->_Adopt(_Plist);

	mov	edx, DWORD PTR __Plist$[ebp]
	push	edx
	mov	ecx, DWORD PTR _this$[ebp]
	call	?_Adopt@_Iterator_base12@std@@QAEXPBU_Container_base12@2@@Z ; std::_Iterator_base12::_Adopt

; 39   :     }

	mov	eax, DWORD PTR _this$[ebp]
	add	esp, 4
	cmp	ebp, esp
	call	__RTC_CheckEsp
	mov	esp, ebp
	pop	ebp
	ret	8
??0?$_List_unchecked_const_iterator@V?$_List_val@U?$_List_simple_types@PAVRaven_Bot@@@std@@@std@@U_Iterator_base12@2@@std@@QAE@PAU?$_List_node@PAVRaven_Bot@@PAX@1@PBV?$_List_val@U?$_List_simple_types@PAVRaven_Bot@@@std@@@1@@Z ENDP ; std::_List_unchecked_const_iterator<std::_List_val<std::_List_simple_types<Raven_Bot *> >,std::_Iterator_base12>::_List_unchecked_const_iterator<std::_List_val<std::_List_simple_types<Raven_Bot *> >,std::_Iterator_base12>
_TEXT	ENDS
; Function compile flags: /Odtp /RTCsu
; File C:\Program Files (x86)\Microsoft Visual Studio\2019\Community\VC\Tools\MSVC\14.21.27702\include\xmemory0
;	COMDAT ?_Get_first@?$_Compressed_pair@V?$allocator@U?$_List_node@PAVRaven_Bot@@PAX@std@@@std@@V?$_List_val@U?$_List_simple_types@PAVRaven_Bot@@@std@@@2@$00@std@@QAEAAV?$allocator@U?$_List_node@PAVRaven_Bot@@PAX@std@@@2@XZ
_TEXT	SEGMENT
_this$ = -4						; size = 4
?_Get_first@?$_Compressed_pair@V?$allocator@U?$_List_node@PAVRaven_Bot@@PAX@std@@@std@@V?$_List_val@U?$_List_simple_types@PAVRaven_Bot@@@std@@@2@$00@std@@QAEAAV?$allocator@U?$_List_node@PAVRaven_Bot@@PAX@std@@@2@XZ PROC ; std::_Compressed_pair<std::allocator<std::_List_node<Raven_Bot *,void *> >,std::_List_val<std::_List_simple_types<Raven_Bot *> >,1>::_Get_first, COMDAT
; _this$ = ecx

; 1520 :     _Ty1& _Get_first() noexcept { // return reference to first

	push	ebp
	mov	ebp, esp
	push	ecx
	mov	DWORD PTR [ebp-4], -858993460		; ccccccccH
	mov	DWORD PTR _this$[ebp], ecx

; 1521 :         return *this;

	mov	eax, DWORD PTR _this$[ebp]

; 1522 :     }

	mov	esp, ebp
	pop	ebp
	ret	0
?_Get_first@?$_Compressed_pair@V?$allocator@U?$_List_node@PAVRaven_Bot@@PAX@std@@@std@@V?$_List_val@U?$_List_simple_types@PAVRaven_Bot@@@std@@@2@$00@std@@QAEAAV?$allocator@U?$_List_node@PAVRaven_Bot@@PAX@std@@@2@XZ ENDP ; std::_Compressed_pair<std::allocator<std::_List_node<Raven_Bot *,void *> >,std::_List_val<std::_List_simple_types<Raven_Bot *> >,1>::_Get_first
_TEXT	ENDS
; Function compile flags: /Odtp /RTCsu
; File C:\Program Files (x86)\Microsoft Visual Studio\2019\Community\VC\Tools\MSVC\14.21.27702\include\list
;	COMDAT ??0?$_List_val@U?$_List_simple_types@PAVRaven_Bot@@@std@@@std@@QAE@XZ
_TEXT	SEGMENT
_this$ = -4						; size = 4
??0?$_List_val@U?$_List_simple_types@PAVRaven_Bot@@@std@@@std@@QAE@XZ PROC ; std::_List_val<std::_List_simple_types<Raven_Bot *> >::_List_val<std::_List_simple_types<Raven_Bot *> >, COMDAT
; _this$ = ecx

; 371  :     _List_val() : _Myhead(), _Mysize(0) { // initialize data

	push	ebp
	mov	ebp, esp
	push	ecx
	mov	DWORD PTR [ebp-4], -858993460		; ccccccccH
	mov	DWORD PTR _this$[ebp], ecx
	mov	ecx, DWORD PTR _this$[ebp]
	call	??0_Container_base12@std@@QAE@XZ	; std::_Container_base12::_Container_base12
	mov	eax, DWORD PTR _this$[ebp]
	mov	DWORD PTR [eax+4], 0
	mov	ecx, DWORD PTR _this$[ebp]
	mov	DWORD PTR [ecx+8], 0

; 372  :     }

	mov	eax, DWORD PTR _this$[ebp]
	add	esp, 4
	cmp	ebp, esp
	call	__RTC_CheckEsp
	mov	esp, ebp
	pop	ebp
	ret	0
??0?$_List_val@U?$_List_simple_types@PAVRaven_Bot@@@std@@@std@@QAE@XZ ENDP ; std::_List_val<std::_List_simple_types<Raven_Bot *> >::_List_val<std::_List_simple_types<Raven_Bot *> >
_TEXT	ENDS
; Function compile flags: /Odtp /RTCsu
; File C:\Program Files (x86)\Microsoft Visual Studio\2019\Community\VC\Tools\MSVC\14.21.27702\include\list
;	COMDAT ?_Myhead@?$list@PAVRaven_Bot@@V?$allocator@PAVRaven_Bot@@@std@@@std@@AAEAAPAU?$_List_node@PAVRaven_Bot@@PAX@2@XZ
_TEXT	SEGMENT
_this$ = -4						; size = 4
?_Myhead@?$list@PAVRaven_Bot@@V?$allocator@PAVRaven_Bot@@@std@@@std@@AAEAAPAU?$_List_node@PAVRaven_Bot@@PAX@2@XZ PROC ; std::list<Raven_Bot *,std::allocator<Raven_Bot *> >::_Myhead, COMDAT
; _this$ = ecx

; 1667 :     _Nodeptr& _Myhead() noexcept { // return reference to _Myhead

	push	ebp
	mov	ebp, esp
	push	ecx
	mov	DWORD PTR [ebp-4], -858993460		; ccccccccH
	mov	DWORD PTR _this$[ebp], ecx

; 1668 :         return _Get_data()._Myhead;

	mov	ecx, DWORD PTR _this$[ebp]
	call	?_Get_data@?$list@PAVRaven_Bot@@V?$allocator@PAVRaven_Bot@@@std@@@std@@AAEAAV?$_List_val@U?$_List_simple_types@PAVRaven_Bot@@@std@@@2@XZ ; std::list<Raven_Bot *,std::allocator<Raven_Bot *> >::_Get_data
	add	eax, 4

; 1669 :     }

	add	esp, 4
	cmp	ebp, esp
	call	__RTC_CheckEsp
	mov	esp, ebp
	pop	ebp
	ret	0
?_Myhead@?$list@PAVRaven_Bot@@V?$allocator@PAVRaven_Bot@@@std@@@std@@AAEAAPAU?$_List_node@PAVRaven_Bot@@PAX@2@XZ ENDP ; std::list<Raven_Bot *,std::allocator<Raven_Bot *> >::_Myhead
_TEXT	ENDS
; Function compile flags: /Odtp /RTCsu
; File C:\Program Files (x86)\Microsoft Visual Studio\2019\Community\VC\Tools\MSVC\14.21.27702\include\list
;	COMDAT ?_Get_data@?$list@PAVRaven_Bot@@V?$allocator@PAVRaven_Bot@@@std@@@std@@AAEAAV?$_List_val@U?$_List_simple_types@PAVRaven_Bot@@@std@@@2@XZ
_TEXT	SEGMENT
_this$ = -4						; size = 4
?_Get_data@?$list@PAVRaven_Bot@@V?$allocator@PAVRaven_Bot@@@std@@@std@@AAEAAV?$_List_val@U?$_List_simple_types@PAVRaven_Bot@@@std@@@2@XZ PROC ; std::list<Raven_Bot *,std::allocator<Raven_Bot *> >::_Get_data, COMDAT
; _this$ = ecx

; 1659 :     _Scary_val& _Get_data() noexcept { // return reference to _Scary_val

	push	ebp
	mov	ebp, esp
	push	ecx
	mov	DWORD PTR [ebp-4], -858993460		; ccccccccH
	mov	DWORD PTR _this$[ebp], ecx

; 1660 :         return _Mypair._Myval2;

	mov	eax, DWORD PTR _this$[ebp]

; 1661 :     }

	mov	esp, ebp
	pop	ebp
	ret	0
?_Get_data@?$list@PAVRaven_Bot@@V?$allocator@PAVRaven_Bot@@@std@@@std@@AAEAAV?$_List_val@U?$_List_simple_types@PAVRaven_Bot@@@std@@@2@XZ ENDP ; std::list<Raven_Bot *,std::allocator<Raven_Bot *> >::_Get_data
_TEXT	ENDS
; Function compile flags: /Odtp /RTCsu
; File C:\Program Files (x86)\Microsoft Visual Studio\2019\Community\VC\Tools\MSVC\14.21.27702\include\list
;	COMDAT ?_Getal@?$list@PAVRaven_Bot@@V?$allocator@PAVRaven_Bot@@@std@@@std@@AAEAAV?$allocator@U?$_List_node@PAVRaven_Bot@@PAX@std@@@2@XZ
_TEXT	SEGMENT
_this$ = -4						; size = 4
?_Getal@?$list@PAVRaven_Bot@@V?$allocator@PAVRaven_Bot@@@std@@@std@@AAEAAV?$allocator@U?$_List_node@PAVRaven_Bot@@PAX@std@@@2@XZ PROC ; std::list<Raven_Bot *,std::allocator<Raven_Bot *> >::_Getal, COMDAT
; _this$ = ecx

; 1651 :     _Alnode& _Getal() noexcept { // return reference to allocator

	push	ebp
	mov	ebp, esp
	push	ecx
	mov	DWORD PTR [ebp-4], -858993460		; ccccccccH
	mov	DWORD PTR _this$[ebp], ecx

; 1652 :         return _Mypair._Get_first();

	mov	ecx, DWORD PTR _this$[ebp]
	call	?_Get_first@?$_Compressed_pair@V?$allocator@U?$_List_node@PAVRaven_Bot@@PAX@std@@@std@@V?$_List_val@U?$_List_simple_types@PAVRaven_Bot@@@std@@@2@$00@std@@QAEAAV?$allocator@U?$_List_node@PAVRaven_Bot@@PAX@std@@@2@XZ ; std::_Compressed_pair<std::allocator<std::_List_node<Raven_Bot *,void *> >,std::_List_val<std::_List_simple_types<Raven_Bot *> >,1>::_Get_first

; 1653 :     }

	add	esp, 4
	cmp	ebp, esp
	call	__RTC_CheckEsp
	mov	esp, ebp
	pop	ebp
	ret	0
?_Getal@?$list@PAVRaven_Bot@@V?$allocator@PAVRaven_Bot@@@std@@@std@@AAEAAV?$allocator@U?$_List_node@PAVRaven_Bot@@PAX@std@@@2@XZ ENDP ; std::list<Raven_Bot *,std::allocator<Raven_Bot *> >::_Getal
_TEXT	ENDS
; Function compile flags: /Odtp /RTCsu
; File C:\Program Files (x86)\Microsoft Visual Studio\2019\Community\VC\Tools\MSVC\14.21.27702\include\list
;	COMDAT ?_Alloc_sentinel_and_proxy@?$list@PAVRaven_Bot@@V?$allocator@PAVRaven_Bot@@@std@@@std@@AAEXXZ
_TEXT	SEGMENT
__Newhead$ = -64					; size = 4
__Al$ = -56						; size = 4
__Proxy$ = -48						; size = 8
_$S15$ = -29						; size = 1
__Alproxy$ = -24					; size = 4
__My_data$ = -20					; size = 4
_this$ = -16						; size = 4
__$EHRec$ = -12						; size = 12
?_Alloc_sentinel_and_proxy@?$list@PAVRaven_Bot@@V?$allocator@PAVRaven_Bot@@@std@@@std@@AAEXXZ PROC ; std::list<Raven_Bot *,std::allocator<Raven_Bot *> >::_Alloc_sentinel_and_proxy, COMDAT
; _this$ = ecx

; 1631 :     void _Alloc_sentinel_and_proxy() {

	push	ebp
	mov	ebp, esp
	push	-1
	push	__ehhandler$?_Alloc_sentinel_and_proxy@?$list@PAVRaven_Bot@@V?$allocator@PAVRaven_Bot@@@std@@@std@@AAEXXZ
	mov	eax, DWORD PTR fs:0
	push	eax
	sub	esp, 56					; 00000038H
	push	edi
	push	ecx
	lea	edi, DWORD PTR [ebp-68]
	mov	ecx, 14					; 0000000eH
	mov	eax, -858993460				; ccccccccH
	rep stosd
	pop	ecx
	mov	eax, DWORD PTR ___security_cookie
	xor	eax, ebp
	push	eax
	lea	eax, DWORD PTR __$EHRec$[ebp]
	mov	DWORD PTR fs:0, eax
	mov	DWORD PTR _this$[ebp], ecx

; 1632 :         auto& _My_data  = _Get_data();

	mov	ecx, DWORD PTR _this$[ebp]
	call	?_Get_data@?$list@PAVRaven_Bot@@V?$allocator@PAVRaven_Bot@@@std@@@std@@AAEAAV?$_List_val@U?$_List_simple_types@PAVRaven_Bot@@@std@@@2@XZ ; std::list<Raven_Bot *,std::allocator<Raven_Bot *> >::_Get_data
	mov	DWORD PTR __My_data$[ebp], eax

; 1633 :         auto&& _Alproxy = _GET_PROXY_ALLOCATOR(_Alnode, _Getal());

	mov	ecx, DWORD PTR _this$[ebp]
	call	?_Getal@?$list@PAVRaven_Bot@@V?$allocator@PAVRaven_Bot@@@std@@@std@@AAEAAV?$allocator@U?$_List_node@PAVRaven_Bot@@PAX@std@@@2@XZ ; std::list<Raven_Bot *,std::allocator<Raven_Bot *> >::_Getal
	push	eax
	lea	ecx, DWORD PTR _$S15$[ebp]
	call	??$?0U?$_List_node@PAVRaven_Bot@@PAX@std@@@?$allocator@U_Container_proxy@std@@@std@@QAE@ABV?$allocator@U?$_List_node@PAVRaven_Bot@@PAX@std@@@1@@Z ; std::allocator<std::_Container_proxy>::allocator<std::_Container_proxy><std::_List_node<Raven_Bot *,void *> >
	lea	eax, DWORD PTR _$S15$[ebp]
	mov	DWORD PTR __Alproxy$[ebp], eax

; 1634 :         _Container_proxy_ptr<_Alty> _Proxy(_Alproxy, _My_data);

	mov	ecx, DWORD PTR __My_data$[ebp]
	push	ecx
	mov	edx, DWORD PTR __Alproxy$[ebp]
	push	edx
	lea	ecx, DWORD PTR __Proxy$[ebp]
	call	??0?$_Container_proxy_ptr12@V?$allocator@U_Container_proxy@std@@@std@@@std@@QAE@AAV?$allocator@U_Container_proxy@std@@@1@AAU_Container_base12@1@@Z ; std::_Container_proxy_ptr12<std::allocator<std::_Container_proxy> >::_Container_proxy_ptr12<std::allocator<std::_Container_proxy> >
	mov	DWORD PTR __$EHRec$[ebp+8], 0

; 1635 :         auto& _Al     = _Getal();

	mov	ecx, DWORD PTR _this$[ebp]
	call	?_Getal@?$list@PAVRaven_Bot@@V?$allocator@PAVRaven_Bot@@@std@@@std@@AAEAAV?$allocator@U?$_List_node@PAVRaven_Bot@@PAX@std@@@2@XZ ; std::list<Raven_Bot *,std::allocator<Raven_Bot *> >::_Getal
	mov	DWORD PTR __Al$[ebp], eax

; 1636 :         auto _Newhead = _Al.allocate(1);

	push	1
	mov	ecx, DWORD PTR __Al$[ebp]
	call	?allocate@?$allocator@U?$_List_node@PAVRaven_Bot@@PAX@std@@@std@@QAEPAU?$_List_node@PAVRaven_Bot@@PAX@2@I@Z ; std::allocator<std::_List_node<Raven_Bot *,void *> >::allocate
	mov	DWORD PTR __Newhead$[ebp], eax

; 1637 :         _Alnode_traits::construct(_Al, _STD addressof(_Newhead->_Next), _Newhead); // assumed nothrow

	lea	eax, DWORD PTR __Newhead$[ebp]
	push	eax
	mov	ecx, DWORD PTR __Newhead$[ebp]
	push	ecx
	call	??$addressof@PAU?$_List_node@PAVRaven_Bot@@PAX@std@@@std@@YAPAPAU?$_List_node@PAVRaven_Bot@@PAX@0@AAPAU10@@Z ; std::addressof<std::_List_node<Raven_Bot *,void *> *>
	add	esp, 4
	push	eax
	mov	edx, DWORD PTR __Al$[ebp]
	push	edx
	call	??$construct@PAU?$_List_node@PAVRaven_Bot@@PAX@std@@AAPAU12@@?$_Default_allocator_traits@V?$allocator@U?$_List_node@PAVRaven_Bot@@PAX@std@@@std@@@std@@SAXAAV?$allocator@U?$_List_node@PAVRaven_Bot@@PAX@std@@@1@QAPAU?$_List_node@PAVRaven_Bot@@PAX@1@AAPAU31@@Z ; std::_Default_allocator_traits<std::allocator<std::_List_node<Raven_Bot *,void *> > >::construct<std::_List_node<Raven_Bot *,void *> *,std::_List_node<Raven_Bot *,void *> * &>
	add	esp, 12					; 0000000cH

; 1638 :         _Alnode_traits::construct(_Al, _STD addressof(_Newhead->_Prev), _Newhead);

	lea	eax, DWORD PTR __Newhead$[ebp]
	push	eax
	mov	ecx, DWORD PTR __Newhead$[ebp]
	add	ecx, 4
	push	ecx
	call	??$addressof@PAU?$_List_node@PAVRaven_Bot@@PAX@std@@@std@@YAPAPAU?$_List_node@PAVRaven_Bot@@PAX@0@AAPAU10@@Z ; std::addressof<std::_List_node<Raven_Bot *,void *> *>
	add	esp, 4
	push	eax
	mov	edx, DWORD PTR __Al$[ebp]
	push	edx
	call	??$construct@PAU?$_List_node@PAVRaven_Bot@@PAX@std@@AAPAU12@@?$_Default_allocator_traits@V?$allocator@U?$_List_node@PAVRaven_Bot@@PAX@std@@@std@@@std@@SAXAAV?$allocator@U?$_List_node@PAVRaven_Bot@@PAX@std@@@1@QAPAU?$_List_node@PAVRaven_Bot@@PAX@1@AAPAU31@@Z ; std::_Default_allocator_traits<std::allocator<std::_List_node<Raven_Bot *,void *> > >::construct<std::_List_node<Raven_Bot *,void *> *,std::_List_node<Raven_Bot *,void *> * &>
	add	esp, 12					; 0000000cH

; 1639 :         _My_data._Myhead = _Newhead;

	mov	eax, DWORD PTR __My_data$[ebp]
	mov	ecx, DWORD PTR __Newhead$[ebp]
	mov	DWORD PTR [eax+4], ecx

; 1640 :         _Proxy._Release();

	lea	ecx, DWORD PTR __Proxy$[ebp]
	call	?_Release@_Basic_container_proxy_ptr12@std@@QAEXXZ ; std::_Basic_container_proxy_ptr12::_Release

; 1641 :     }

	mov	DWORD PTR __$EHRec$[ebp+8], -1
	lea	ecx, DWORD PTR __Proxy$[ebp]
	call	??1?$_Container_proxy_ptr12@V?$allocator@U_Container_proxy@std@@@std@@@std@@QAE@XZ ; std::_Container_proxy_ptr12<std::allocator<std::_Container_proxy> >::~_Container_proxy_ptr12<std::allocator<std::_Container_proxy> >
	push	edx
	mov	ecx, ebp
	push	eax
	lea	edx, DWORD PTR $LN9@Alloc_sent
	call	@_RTC_CheckStackVars@8
	pop	eax
	pop	edx
	mov	ecx, DWORD PTR __$EHRec$[ebp]
	mov	DWORD PTR fs:0, ecx
	pop	ecx
	pop	edi
	add	esp, 68					; 00000044H
	cmp	ebp, esp
	call	__RTC_CheckEsp
	mov	esp, ebp
	pop	ebp
	ret	0
	npad	1
$LN9@Alloc_sent:
	DD	3
	DD	$LN8@Alloc_sent
$LN8@Alloc_sent:
	DD	-29					; ffffffe3H
	DD	1
	DD	$LN4@Alloc_sent
	DD	-48					; ffffffd0H
	DD	8
	DD	$LN5@Alloc_sent
	DD	-64					; ffffffc0H
	DD	4
	DD	$LN6@Alloc_sent
$LN6@Alloc_sent:
	DB	95					; 0000005fH
	DB	78					; 0000004eH
	DB	101					; 00000065H
	DB	119					; 00000077H
	DB	104					; 00000068H
	DB	101					; 00000065H
	DB	97					; 00000061H
	DB	100					; 00000064H
	DB	0
$LN5@Alloc_sent:
	DB	95					; 0000005fH
	DB	80					; 00000050H
	DB	114					; 00000072H
	DB	111					; 0000006fH
	DB	120					; 00000078H
	DB	121					; 00000079H
	DB	0
$LN4@Alloc_sent:
	DB	36					; 00000024H
	DB	83					; 00000053H
	DB	49					; 00000031H
	DB	53					; 00000035H
	DB	0
_TEXT	ENDS
;	COMDAT text$x
text$x	SEGMENT
__unwindfunclet$?_Alloc_sentinel_and_proxy@?$list@PAVRaven_Bot@@V?$allocator@PAVRaven_Bot@@@std@@@std@@AAEXXZ$0:
	lea	ecx, DWORD PTR __Proxy$[ebp]
	jmp	??1?$_Container_proxy_ptr12@V?$allocator@U_Container_proxy@std@@@std@@@std@@QAE@XZ ; std::_Container_proxy_ptr12<std::allocator<std::_Container_proxy> >::~_Container_proxy_ptr12<std::allocator<std::_Container_proxy> >
__ehhandler$?_Alloc_sentinel_and_proxy@?$list@PAVRaven_Bot@@V?$allocator@PAVRaven_Bot@@@std@@@std@@AAEXXZ:
	mov	edx, DWORD PTR [esp+8]
	lea	eax, DWORD PTR [edx+12]
	mov	ecx, DWORD PTR [edx-64]
	xor	ecx, eax
	call	@__security_check_cookie@4
	mov	eax, OFFSET __ehfuncinfo$?_Alloc_sentinel_and_proxy@?$list@PAVRaven_Bot@@V?$allocator@PAVRaven_Bot@@@std@@@std@@AAEXXZ
	jmp	___CxxFrameHandler3
text$x	ENDS
?_Alloc_sentinel_and_proxy@?$list@PAVRaven_Bot@@V?$allocator@PAVRaven_Bot@@@std@@@std@@AAEXXZ ENDP ; std::list<Raven_Bot *,std::allocator<Raven_Bot *> >::_Alloc_sentinel_and_proxy
; Function compile flags: /Odtp /RTCsu
; File C:\Program Files (x86)\Microsoft Visual Studio\2019\Community\VC\Tools\MSVC\14.21.27702\include\list
;	COMDAT ?_Orphan_non_end@?$list@PAVRaven_Bot@@V?$allocator@PAVRaven_Bot@@@std@@@std@@AAEXXZ
_TEXT	SEGMENT
__Pnextnext$2 = -40					; size = 4
__Head$ = -36						; size = 4
__Pnext$ = -32						; size = 4
__Lock$ = -24						; size = 4
_this$ = -16						; size = 4
__$EHRec$ = -12						; size = 12
?_Orphan_non_end@?$list@PAVRaven_Bot@@V?$allocator@PAVRaven_Bot@@@std@@@std@@AAEXXZ PROC ; std::list<Raven_Bot *,std::allocator<Raven_Bot *> >::_Orphan_non_end, COMDAT
; _this$ = ecx

; 1614 :     void _Orphan_non_end() noexcept { // orphan iterators except end()

	push	ebp
	mov	ebp, esp
	push	-1
	push	__ehhandler$?_Orphan_non_end@?$list@PAVRaven_Bot@@V?$allocator@PAVRaven_Bot@@@std@@@std@@AAEXXZ
	mov	eax, DWORD PTR fs:0
	push	eax
	sub	esp, 28					; 0000001cH
	mov	eax, -858993460				; ccccccccH
	mov	DWORD PTR [ebp-40], eax
	mov	DWORD PTR [ebp-36], eax
	mov	DWORD PTR [ebp-32], eax
	mov	DWORD PTR [ebp-28], eax
	mov	DWORD PTR [ebp-24], eax
	mov	DWORD PTR [ebp-20], eax
	mov	DWORD PTR [ebp-16], eax
	mov	eax, DWORD PTR ___security_cookie
	xor	eax, ebp
	push	eax
	lea	eax, DWORD PTR __$EHRec$[ebp]
	mov	DWORD PTR fs:0, eax
	mov	DWORD PTR _this$[ebp], ecx

; 1615 : #if _ITERATOR_DEBUG_LEVEL == 2
; 1616 :         _Lockit _Lock(_LOCK_DEBUG);

	push	3
	lea	ecx, DWORD PTR __Lock$[ebp]
	call	??0_Lockit@std@@QAE@H@Z			; std::_Lockit::_Lockit

; 1617 :         _Iterator_base12** _Pnext = &_Get_data()._Myproxy->_Myfirstiter;

	mov	ecx, DWORD PTR _this$[ebp]
	call	?_Get_data@?$list@PAVRaven_Bot@@V?$allocator@PAVRaven_Bot@@@std@@@std@@AAEAAV?$_List_val@U?$_List_simple_types@PAVRaven_Bot@@@std@@@2@XZ ; std::list<Raven_Bot *,std::allocator<Raven_Bot *> >::_Get_data
	mov	eax, DWORD PTR [eax]
	add	eax, 4
	mov	DWORD PTR __Pnext$[ebp], eax

; 1618 :         const auto _Head          = _Myhead();

	mov	ecx, DWORD PTR _this$[ebp]
	call	?_Myhead@?$list@PAVRaven_Bot@@V?$allocator@PAVRaven_Bot@@@std@@@std@@AAEAAPAU?$_List_node@PAVRaven_Bot@@PAX@2@XZ ; std::list<Raven_Bot *,std::allocator<Raven_Bot *> >::_Myhead
	mov	ecx, DWORD PTR [eax]
	mov	DWORD PTR __Head$[ebp], ecx
$LN2@Orphan_non:

; 1619 :         while (*_Pnext != nullptr) {

	mov	edx, DWORD PTR __Pnext$[ebp]
	cmp	DWORD PTR [edx], 0
	je	SHORT $LN3@Orphan_non

; 1620 :             _Iterator_base12** _Pnextnext = &(*_Pnext)->_Mynextiter;

	mov	eax, DWORD PTR __Pnext$[ebp]
	mov	ecx, DWORD PTR [eax]
	add	ecx, 4
	mov	DWORD PTR __Pnextnext$2[ebp], ecx

; 1621 :             if (static_cast<const_iterator&>(**_Pnext)._Ptr == _Head) { // iterator is end(), move on

	mov	edx, DWORD PTR __Pnext$[ebp]
	mov	eax, DWORD PTR [edx]
	mov	ecx, DWORD PTR [eax+8]
	cmp	ecx, DWORD PTR __Head$[ebp]
	jne	SHORT $LN4@Orphan_non

; 1622 :                 _Pnext = _Pnextnext;

	mov	edx, DWORD PTR __Pnextnext$2[ebp]
	mov	DWORD PTR __Pnext$[ebp], edx

; 1623 :             } else { // orphan the iterator

	jmp	SHORT $LN5@Orphan_non
$LN4@Orphan_non:

; 1624 :                 (*_Pnext)->_Myproxy = nullptr;

	mov	eax, DWORD PTR __Pnext$[ebp]
	mov	ecx, DWORD PTR [eax]
	mov	DWORD PTR [ecx], 0

; 1625 :                 *_Pnext             = *_Pnextnext;

	mov	edx, DWORD PTR __Pnext$[ebp]
	mov	eax, DWORD PTR __Pnextnext$2[ebp]
	mov	ecx, DWORD PTR [eax]
	mov	DWORD PTR [edx], ecx
$LN5@Orphan_non:

; 1626 :             }
; 1627 :         }

	jmp	SHORT $LN2@Orphan_non
$LN3@Orphan_non:

; 1628 : #endif // _ITERATOR_DEBUG_LEVEL == 2
; 1629 :     }

	lea	ecx, DWORD PTR __Lock$[ebp]
	call	??1_Lockit@std@@QAE@XZ			; std::_Lockit::~_Lockit
	push	edx
	mov	ecx, ebp
	push	eax
	lea	edx, DWORD PTR $LN10@Orphan_non
	call	@_RTC_CheckStackVars@8
	pop	eax
	pop	edx
	mov	ecx, DWORD PTR __$EHRec$[ebp]
	mov	DWORD PTR fs:0, ecx
	pop	ecx
	add	esp, 40					; 00000028H
	cmp	ebp, esp
	call	__RTC_CheckEsp
	mov	esp, ebp
	pop	ebp
	ret	0
	npad	2
$LN10@Orphan_non:
	DD	1
	DD	$LN9@Orphan_non
$LN9@Orphan_non:
	DD	-24					; ffffffe8H
	DD	4
	DD	$LN7@Orphan_non
$LN7@Orphan_non:
	DB	95					; 0000005fH
	DB	76					; 0000004cH
	DB	111					; 0000006fH
	DB	99					; 00000063H
	DB	107					; 0000006bH
	DB	0
_TEXT	ENDS
;	COMDAT text$x
text$x	SEGMENT
__ehhandler$?_Orphan_non_end@?$list@PAVRaven_Bot@@V?$allocator@PAVRaven_Bot@@@std@@@std@@AAEXXZ:
	mov	edx, DWORD PTR [esp+8]
	lea	eax, DWORD PTR [edx+12]
	mov	ecx, DWORD PTR [edx-32]
	xor	ecx, eax
	call	@__security_check_cookie@4
	mov	eax, OFFSET __ehfuncinfo$?_Orphan_non_end@?$list@PAVRaven_Bot@@V?$allocator@PAVRaven_Bot@@@std@@@std@@AAEXXZ
	jmp	___CxxFrameHandler3
text$x	ENDS
?_Orphan_non_end@?$list@PAVRaven_Bot@@V?$allocator@PAVRaven_Bot@@@std@@@std@@AAEXXZ ENDP ; std::list<Raven_Bot *,std::allocator<Raven_Bot *> >::_Orphan_non_end
; Function compile flags: /Odtp /RTCsu
; File C:\Program Files (x86)\Microsoft Visual Studio\2019\Community\VC\Tools\MSVC\14.21.27702\include\list
;	COMDAT ?_Tidy@?$list@PAVRaven_Bot@@V?$allocator@PAVRaven_Bot@@@std@@@std@@AAEXXZ
_TEXT	SEGMENT
__My_data$ = -12					; size = 4
__Al$ = -8						; size = 4
_this$ = -4						; size = 4
?_Tidy@?$list@PAVRaven_Bot@@V?$allocator@PAVRaven_Bot@@@std@@@std@@AAEXXZ PROC ; std::list<Raven_Bot *,std::allocator<Raven_Bot *> >::_Tidy, COMDAT
; _this$ = ecx

; 1199 :     void _Tidy() noexcept {

	push	ebp
	mov	ebp, esp
	sub	esp, 12					; 0000000cH
	mov	DWORD PTR [ebp-12], -858993460		; ccccccccH
	mov	DWORD PTR [ebp-8], -858993460		; ccccccccH
	mov	DWORD PTR [ebp-4], -858993460		; ccccccccH
	mov	DWORD PTR _this$[ebp], ecx

; 1200 :         auto& _Al      = _Getal();

	mov	ecx, DWORD PTR _this$[ebp]
	call	?_Getal@?$list@PAVRaven_Bot@@V?$allocator@PAVRaven_Bot@@@std@@@std@@AAEAAV?$allocator@U?$_List_node@PAVRaven_Bot@@PAX@std@@@2@XZ ; std::list<Raven_Bot *,std::allocator<Raven_Bot *> >::_Getal
	mov	DWORD PTR __Al$[ebp], eax

; 1201 :         auto& _My_data = _Get_data();

	mov	ecx, DWORD PTR _this$[ebp]
	call	?_Get_data@?$list@PAVRaven_Bot@@V?$allocator@PAVRaven_Bot@@@std@@@std@@AAEAAV?$_List_val@U?$_List_simple_types@PAVRaven_Bot@@@std@@@2@XZ ; std::list<Raven_Bot *,std::allocator<Raven_Bot *> >::_Get_data
	mov	DWORD PTR __My_data$[ebp], eax

; 1202 :         _My_data._Orphan_all();

	mov	ecx, DWORD PTR __My_data$[ebp]
	call	?_Orphan_all@_Container_base12@std@@QAEXXZ ; std::_Container_base12::_Orphan_all

; 1203 :         _Node::_Free_non_head(_Al, _My_data._Myhead);

	mov	eax, DWORD PTR __My_data$[ebp]
	mov	ecx, DWORD PTR [eax+4]
	push	ecx
	mov	edx, DWORD PTR __Al$[ebp]
	push	edx
	call	??$_Free_non_head@V?$allocator@U?$_List_node@PAVRaven_Bot@@PAX@std@@@std@@@?$_List_node@PAVRaven_Bot@@PAX@std@@SAXAAV?$allocator@U?$_List_node@PAVRaven_Bot@@PAX@std@@@1@PAU01@@Z ; std::_List_node<Raven_Bot *,void *>::_Free_non_head<std::allocator<std::_List_node<Raven_Bot *,void *> > >
	add	esp, 8

; 1204 :         _Node::_Freenode0(_Al, _My_data._Myhead);

	mov	eax, DWORD PTR __My_data$[ebp]
	mov	ecx, DWORD PTR [eax+4]
	push	ecx
	mov	edx, DWORD PTR __Al$[ebp]
	push	edx
	call	??$_Freenode0@V?$allocator@U?$_List_node@PAVRaven_Bot@@PAX@std@@@std@@@?$_List_node@PAVRaven_Bot@@PAX@std@@SAXAAV?$allocator@U?$_List_node@PAVRaven_Bot@@PAX@std@@@1@PAU01@@Z ; std::_List_node<Raven_Bot *,void *>::_Freenode0<std::allocator<std::_List_node<Raven_Bot *,void *> > >
	add	esp, 8

; 1205 :     }

	add	esp, 12					; 0000000cH
	cmp	ebp, esp
	call	__RTC_CheckEsp
	mov	esp, ebp
	pop	ebp
	ret	0
?_Tidy@?$list@PAVRaven_Bot@@V?$allocator@PAVRaven_Bot@@@std@@@std@@AAEXXZ ENDP ; std::list<Raven_Bot *,std::allocator<Raven_Bot *> >::_Tidy
_TEXT	ENDS
; Function compile flags: /Odtp /RTCsu
; File C:\Program Files (x86)\Microsoft Visual Studio\2019\Community\VC\Tools\MSVC\14.21.27702\include\list
;	COMDAT ?clear@?$list@PAVRaven_Bot@@V?$allocator@PAVRaven_Bot@@@std@@@std@@QAEXXZ
_TEXT	SEGMENT
__My_data$ = -8						; size = 4
_this$ = -4						; size = 4
?clear@?$list@PAVRaven_Bot@@V?$allocator@PAVRaven_Bot@@@std@@@std@@QAEXXZ PROC ; std::list<Raven_Bot *,std::allocator<Raven_Bot *> >::clear, COMDAT
; _this$ = ecx

; 1189 :     void clear() noexcept { // erase all

	push	ebp
	mov	ebp, esp
	sub	esp, 8
	mov	DWORD PTR [ebp-8], -858993460		; ccccccccH
	mov	DWORD PTR [ebp-4], -858993460		; ccccccccH
	mov	DWORD PTR _this$[ebp], ecx

; 1190 :         auto& _My_data = _Get_data();

	mov	ecx, DWORD PTR _this$[ebp]
	call	?_Get_data@?$list@PAVRaven_Bot@@V?$allocator@PAVRaven_Bot@@@std@@@std@@AAEAAV?$_List_val@U?$_List_simple_types@PAVRaven_Bot@@@std@@@2@XZ ; std::list<Raven_Bot *,std::allocator<Raven_Bot *> >::_Get_data
	mov	DWORD PTR __My_data$[ebp], eax

; 1191 :         _Orphan_non_end();

	mov	ecx, DWORD PTR _this$[ebp]
	call	?_Orphan_non_end@?$list@PAVRaven_Bot@@V?$allocator@PAVRaven_Bot@@@std@@@std@@AAEXXZ ; std::list<Raven_Bot *,std::allocator<Raven_Bot *> >::_Orphan_non_end

; 1192 :         _Node::_Free_non_head(_Getal(), _My_data._Myhead);

	mov	eax, DWORD PTR __My_data$[ebp]
	mov	ecx, DWORD PTR [eax+4]
	push	ecx
	mov	ecx, DWORD PTR _this$[ebp]
	call	?_Getal@?$list@PAVRaven_Bot@@V?$allocator@PAVRaven_Bot@@@std@@@std@@AAEAAV?$allocator@U?$_List_node@PAVRaven_Bot@@PAX@std@@@2@XZ ; std::list<Raven_Bot *,std::allocator<Raven_Bot *> >::_Getal
	push	eax
	call	??$_Free_non_head@V?$allocator@U?$_List_node@PAVRaven_Bot@@PAX@std@@@std@@@?$_List_node@PAVRaven_Bot@@PAX@std@@SAXAAV?$allocator@U?$_List_node@PAVRaven_Bot@@PAX@std@@@1@PAU01@@Z ; std::_List_node<Raven_Bot *,void *>::_Free_non_head<std::allocator<std::_List_node<Raven_Bot *,void *> > >
	add	esp, 8

; 1193 :         _My_data._Myhead->_Next = _My_data._Myhead;

	mov	edx, DWORD PTR __My_data$[ebp]
	mov	eax, DWORD PTR [edx+4]
	mov	ecx, DWORD PTR __My_data$[ebp]
	mov	edx, DWORD PTR [ecx+4]
	mov	DWORD PTR [eax], edx

; 1194 :         _My_data._Myhead->_Prev = _My_data._Myhead;

	mov	eax, DWORD PTR __My_data$[ebp]
	mov	ecx, DWORD PTR [eax+4]
	mov	edx, DWORD PTR __My_data$[ebp]
	mov	eax, DWORD PTR [edx+4]
	mov	DWORD PTR [ecx+4], eax

; 1195 :         _My_data._Mysize        = 0;

	mov	ecx, DWORD PTR __My_data$[ebp]
	mov	DWORD PTR [ecx+8], 0

; 1196 :     }

	add	esp, 8
	cmp	ebp, esp
	call	__RTC_CheckEsp
	mov	esp, ebp
	pop	ebp
	ret	0
?clear@?$list@PAVRaven_Bot@@V?$allocator@PAVRaven_Bot@@@std@@@std@@QAEXXZ ENDP ; std::list<Raven_Bot *,std::allocator<Raven_Bot *> >::clear
_TEXT	ENDS
; Function compile flags: /Odtp /RTCsu
; File C:\Program Files (x86)\Microsoft Visual Studio\2019\Community\VC\Tools\MSVC\14.21.27702\include\list
;	COMDAT ?end@?$list@PAVRaven_Bot@@V?$allocator@PAVRaven_Bot@@@std@@@std@@QAE?AV?$_List_iterator@V?$_List_val@U?$_List_simple_types@PAVRaven_Bot@@@std@@@std@@@2@XZ
_TEXT	SEGMENT
_this$ = -16						; size = 4
__$EHRec$ = -12						; size = 12
___$ReturnUdt$ = 8					; size = 4
?end@?$list@PAVRaven_Bot@@V?$allocator@PAVRaven_Bot@@@std@@@std@@QAE?AV?$_List_iterator@V?$_List_val@U?$_List_simple_types@PAVRaven_Bot@@@std@@@std@@@2@XZ PROC ; std::list<Raven_Bot *,std::allocator<Raven_Bot *> >::end, COMDAT
; _this$ = ecx

; 900  :     _NODISCARD iterator end() noexcept { // return iterator for end of mutable sequence

	push	ebp
	mov	ebp, esp
	push	-1
	push	__ehhandler$?end@?$list@PAVRaven_Bot@@V?$allocator@PAVRaven_Bot@@@std@@@std@@QAE?AV?$_List_iterator@V?$_List_val@U?$_List_simple_types@PAVRaven_Bot@@@std@@@std@@@2@XZ
	mov	eax, DWORD PTR fs:0
	push	eax
	push	ecx
	mov	DWORD PTR [ebp-16], -858993460		; ccccccccH
	mov	eax, DWORD PTR ___security_cookie
	xor	eax, ebp
	push	eax
	lea	eax, DWORD PTR __$EHRec$[ebp]
	mov	DWORD PTR fs:0, eax
	mov	DWORD PTR _this$[ebp], ecx

; 901  :         return iterator(_Myhead(), _STD addressof(_Get_data()));

	mov	ecx, DWORD PTR _this$[ebp]
	call	?_Get_data@?$list@PAVRaven_Bot@@V?$allocator@PAVRaven_Bot@@@std@@@std@@AAEAAV?$_List_val@U?$_List_simple_types@PAVRaven_Bot@@@std@@@2@XZ ; std::list<Raven_Bot *,std::allocator<Raven_Bot *> >::_Get_data
	push	eax
	call	??$addressof@V?$_List_val@U?$_List_simple_types@PAVRaven_Bot@@@std@@@std@@@std@@YAPAV?$_List_val@U?$_List_simple_types@PAVRaven_Bot@@@std@@@0@AAV10@@Z ; std::addressof<std::_List_val<std::_List_simple_types<Raven_Bot *> > >
	add	esp, 4
	push	eax
	mov	ecx, DWORD PTR _this$[ebp]
	call	?_Myhead@?$list@PAVRaven_Bot@@V?$allocator@PAVRaven_Bot@@@std@@@std@@AAEAAPAU?$_List_node@PAVRaven_Bot@@PAX@2@XZ ; std::list<Raven_Bot *,std::allocator<Raven_Bot *> >::_Myhead
	mov	eax, DWORD PTR [eax]
	push	eax
	mov	ecx, DWORD PTR ___$ReturnUdt$[ebp]
	call	??0?$_List_iterator@V?$_List_val@U?$_List_simple_types@PAVRaven_Bot@@@std@@@std@@@std@@QAE@PAU?$_List_node@PAVRaven_Bot@@PAX@1@PBV?$_List_val@U?$_List_simple_types@PAVRaven_Bot@@@std@@@1@@Z ; std::_List_iterator<std::_List_val<std::_List_simple_types<Raven_Bot *> > >::_List_iterator<std::_List_val<std::_List_simple_types<Raven_Bot *> > >
	mov	eax, DWORD PTR ___$ReturnUdt$[ebp]

; 902  :     }

	mov	ecx, DWORD PTR __$EHRec$[ebp]
	mov	DWORD PTR fs:0, ecx
	pop	ecx
	add	esp, 16					; 00000010H
	cmp	ebp, esp
	call	__RTC_CheckEsp
	mov	esp, ebp
	pop	ebp
	ret	4
_TEXT	ENDS
;	COMDAT text$x
text$x	SEGMENT
__ehhandler$?end@?$list@PAVRaven_Bot@@V?$allocator@PAVRaven_Bot@@@std@@@std@@QAE?AV?$_List_iterator@V?$_List_val@U?$_List_simple_types@PAVRaven_Bot@@@std@@@std@@@2@XZ:
	mov	edx, DWORD PTR [esp+8]
	lea	eax, DWORD PTR [edx+12]
	mov	ecx, DWORD PTR [edx-8]
	xor	ecx, eax
	call	@__security_check_cookie@4
	mov	eax, OFFSET __ehfuncinfo$?end@?$list@PAVRaven_Bot@@V?$allocator@PAVRaven_Bot@@@std@@@std@@QAE?AV?$_List_iterator@V?$_List_val@U?$_List_simple_types@PAVRaven_Bot@@@std@@@std@@@2@XZ
	jmp	___CxxFrameHandler3
text$x	ENDS
?end@?$list@PAVRaven_Bot@@V?$allocator@PAVRaven_Bot@@@std@@@std@@QAE?AV?$_List_iterator@V?$_List_val@U?$_List_simple_types@PAVRaven_Bot@@@std@@@std@@@2@XZ ENDP ; std::list<Raven_Bot *,std::allocator<Raven_Bot *> >::end
; Function compile flags: /Odtp /RTCsu
; File C:\Program Files (x86)\Microsoft Visual Studio\2019\Community\VC\Tools\MSVC\14.21.27702\include\list
;	COMDAT ?begin@?$list@PAVRaven_Bot@@V?$allocator@PAVRaven_Bot@@@std@@@std@@QAE?AV?$_List_iterator@V?$_List_val@U?$_List_simple_types@PAVRaven_Bot@@@std@@@std@@@2@XZ
_TEXT	SEGMENT
_this$ = -16						; size = 4
__$EHRec$ = -12						; size = 12
___$ReturnUdt$ = 8					; size = 4
?begin@?$list@PAVRaven_Bot@@V?$allocator@PAVRaven_Bot@@@std@@@std@@QAE?AV?$_List_iterator@V?$_List_val@U?$_List_simple_types@PAVRaven_Bot@@@std@@@std@@@2@XZ PROC ; std::list<Raven_Bot *,std::allocator<Raven_Bot *> >::begin, COMDAT
; _this$ = ecx

; 892  :     _NODISCARD iterator begin() noexcept { // return iterator for beginning of mutable sequence

	push	ebp
	mov	ebp, esp
	push	-1
	push	__ehhandler$?begin@?$list@PAVRaven_Bot@@V?$allocator@PAVRaven_Bot@@@std@@@std@@QAE?AV?$_List_iterator@V?$_List_val@U?$_List_simple_types@PAVRaven_Bot@@@std@@@std@@@2@XZ
	mov	eax, DWORD PTR fs:0
	push	eax
	push	ecx
	mov	DWORD PTR [ebp-16], -858993460		; ccccccccH
	mov	eax, DWORD PTR ___security_cookie
	xor	eax, ebp
	push	eax
	lea	eax, DWORD PTR __$EHRec$[ebp]
	mov	DWORD PTR fs:0, eax
	mov	DWORD PTR _this$[ebp], ecx

; 893  :         return iterator(_Myhead()->_Next, _STD addressof(_Get_data()));

	mov	ecx, DWORD PTR _this$[ebp]
	call	?_Get_data@?$list@PAVRaven_Bot@@V?$allocator@PAVRaven_Bot@@@std@@@std@@AAEAAV?$_List_val@U?$_List_simple_types@PAVRaven_Bot@@@std@@@2@XZ ; std::list<Raven_Bot *,std::allocator<Raven_Bot *> >::_Get_data
	push	eax
	call	??$addressof@V?$_List_val@U?$_List_simple_types@PAVRaven_Bot@@@std@@@std@@@std@@YAPAV?$_List_val@U?$_List_simple_types@PAVRaven_Bot@@@std@@@0@AAV10@@Z ; std::addressof<std::_List_val<std::_List_simple_types<Raven_Bot *> > >
	add	esp, 4
	push	eax
	mov	ecx, DWORD PTR _this$[ebp]
	call	?_Myhead@?$list@PAVRaven_Bot@@V?$allocator@PAVRaven_Bot@@@std@@@std@@AAEAAPAU?$_List_node@PAVRaven_Bot@@PAX@2@XZ ; std::list<Raven_Bot *,std::allocator<Raven_Bot *> >::_Myhead
	mov	eax, DWORD PTR [eax]
	mov	ecx, DWORD PTR [eax]
	push	ecx
	mov	ecx, DWORD PTR ___$ReturnUdt$[ebp]
	call	??0?$_List_iterator@V?$_List_val@U?$_List_simple_types@PAVRaven_Bot@@@std@@@std@@@std@@QAE@PAU?$_List_node@PAVRaven_Bot@@PAX@1@PBV?$_List_val@U?$_List_simple_types@PAVRaven_Bot@@@std@@@1@@Z ; std::_List_iterator<std::_List_val<std::_List_simple_types<Raven_Bot *> > >::_List_iterator<std::_List_val<std::_List_simple_types<Raven_Bot *> > >
	mov	eax, DWORD PTR ___$ReturnUdt$[ebp]

; 894  :     }

	mov	ecx, DWORD PTR __$EHRec$[ebp]
	mov	DWORD PTR fs:0, ecx
	pop	ecx
	add	esp, 16					; 00000010H
	cmp	ebp, esp
	call	__RTC_CheckEsp
	mov	esp, ebp
	pop	ebp
	ret	4
_TEXT	ENDS
;	COMDAT text$x
text$x	SEGMENT
__ehhandler$?begin@?$list@PAVRaven_Bot@@V?$allocator@PAVRaven_Bot@@@std@@@std@@QAE?AV?$_List_iterator@V?$_List_val@U?$_List_simple_types@PAVRaven_Bot@@@std@@@std@@@2@XZ:
	mov	edx, DWORD PTR [esp+8]
	lea	eax, DWORD PTR [edx+12]
	mov	ecx, DWORD PTR [edx-8]
	xor	ecx, eax
	call	@__security_check_cookie@4
	mov	eax, OFFSET __ehfuncinfo$?begin@?$list@PAVRaven_Bot@@V?$allocator@PAVRaven_Bot@@@std@@@std@@QAE?AV?$_List_iterator@V?$_List_val@U?$_List_simple_types@PAVRaven_Bot@@@std@@@std@@@2@XZ
	jmp	___CxxFrameHandler3
text$x	ENDS
?begin@?$list@PAVRaven_Bot@@V?$allocator@PAVRaven_Bot@@@std@@@std@@QAE?AV?$_List_iterator@V?$_List_val@U?$_List_simple_types@PAVRaven_Bot@@@std@@@std@@@2@XZ ENDP ; std::list<Raven_Bot *,std::allocator<Raven_Bot *> >::begin
; Function compile flags: /Odtp /RTCsu
; File C:\Program Files (x86)\Microsoft Visual Studio\2019\Community\VC\Tools\MSVC\14.21.27702\include\list
;	COMDAT ??1?$list@PAVRaven_Bot@@V?$allocator@PAVRaven_Bot@@@std@@@std@@QAE@XZ
_TEXT	SEGMENT
_$S1$ = -13						; size = 1
__Alproxy$ = -8						; size = 4
_this$ = -4						; size = 4
??1?$list@PAVRaven_Bot@@V?$allocator@PAVRaven_Bot@@@std@@@std@@QAE@XZ PROC ; std::list<Raven_Bot *,std::allocator<Raven_Bot *> >::~list<Raven_Bot *,std::allocator<Raven_Bot *> >, COMDAT
; _this$ = ecx

; 847  :     ~list() noexcept { // destroy the object

	push	ebp
	mov	ebp, esp
	sub	esp, 20					; 00000014H
	mov	eax, -858993460				; ccccccccH
	mov	DWORD PTR [ebp-20], eax
	mov	DWORD PTR [ebp-16], eax
	mov	DWORD PTR [ebp-12], eax
	mov	DWORD PTR [ebp-8], eax
	mov	DWORD PTR [ebp-4], eax
	mov	DWORD PTR _this$[ebp], ecx

; 848  :         _Tidy();

	mov	ecx, DWORD PTR _this$[ebp]
	call	?_Tidy@?$list@PAVRaven_Bot@@V?$allocator@PAVRaven_Bot@@@std@@@std@@AAEXXZ ; std::list<Raven_Bot *,std::allocator<Raven_Bot *> >::_Tidy

; 849  : #if _ITERATOR_DEBUG_LEVEL != 0
; 850  :         auto&& _Alproxy = _GET_PROXY_ALLOCATOR(_Alnode, _Getal());

	mov	ecx, DWORD PTR _this$[ebp]
	call	?_Getal@?$list@PAVRaven_Bot@@V?$allocator@PAVRaven_Bot@@@std@@@std@@AAEAAV?$allocator@U?$_List_node@PAVRaven_Bot@@PAX@std@@@2@XZ ; std::list<Raven_Bot *,std::allocator<Raven_Bot *> >::_Getal
	push	eax
	lea	ecx, DWORD PTR _$S1$[ebp]
	call	??$?0U?$_List_node@PAVRaven_Bot@@PAX@std@@@?$allocator@U_Container_proxy@std@@@std@@QAE@ABV?$allocator@U?$_List_node@PAVRaven_Bot@@PAX@std@@@1@@Z ; std::allocator<std::_Container_proxy>::allocator<std::_Container_proxy><std::_List_node<Raven_Bot *,void *> >
	lea	eax, DWORD PTR _$S1$[ebp]
	mov	DWORD PTR __Alproxy$[ebp], eax

; 851  :         _Delete_plain(_Alproxy, _Get_data()._Myproxy);

	mov	ecx, DWORD PTR _this$[ebp]
	call	?_Get_data@?$list@PAVRaven_Bot@@V?$allocator@PAVRaven_Bot@@@std@@@std@@AAEAAV?$_List_val@U?$_List_simple_types@PAVRaven_Bot@@@std@@@2@XZ ; std::list<Raven_Bot *,std::allocator<Raven_Bot *> >::_Get_data
	mov	ecx, DWORD PTR [eax]
	push	ecx
	mov	edx, DWORD PTR __Alproxy$[ebp]
	push	edx
	call	??$_Delete_plain@V?$allocator@U_Container_proxy@std@@@std@@@std@@YAXAAV?$allocator@U_Container_proxy@std@@@0@QAU_Container_proxy@0@@Z ; std::_Delete_plain<std::allocator<std::_Container_proxy> >
	add	esp, 8

; 852  : #endif /* _ITERATOR_DEBUG_LEVEL != 0 */
; 853  :     }

	push	edx
	mov	ecx, ebp
	push	eax
	lea	edx, DWORD PTR $LN5@list
	call	@_RTC_CheckStackVars@8
	pop	eax
	pop	edx
	add	esp, 20					; 00000014H
	cmp	ebp, esp
	call	__RTC_CheckEsp
	mov	esp, ebp
	pop	ebp
	ret	0
	npad	2
$LN5@list:
	DD	1
	DD	$LN4@list
$LN4@list:
	DD	-13					; fffffff3H
	DD	1
	DD	$LN3@list
$LN3@list:
	DB	36					; 00000024H
	DB	83					; 00000053H
	DB	49					; 00000031H
	DB	0
??1?$list@PAVRaven_Bot@@V?$allocator@PAVRaven_Bot@@@std@@@std@@QAE@XZ ENDP ; std::list<Raven_Bot *,std::allocator<Raven_Bot *> >::~list<Raven_Bot *,std::allocator<Raven_Bot *> >
_TEXT	ENDS
; Function compile flags: /Odtp /RTCsu
; File C:\Program Files (x86)\Microsoft Visual Studio\2019\Community\VC\Tools\MSVC\14.21.27702\include\list
;	COMDAT ?_Swap_val@?$list@PAVRaven_Bot@@V?$allocator@PAVRaven_Bot@@@std@@@std@@AAEXAAV12@@Z
_TEXT	SEGMENT
__Right_data$ = -12					; size = 4
__My_data$ = -8						; size = 4
_this$ = -4						; size = 4
__Right$ = 8						; size = 4
?_Swap_val@?$list@PAVRaven_Bot@@V?$allocator@PAVRaven_Bot@@@std@@@std@@AAEXAAV12@@Z PROC ; std::list<Raven_Bot *,std::allocator<Raven_Bot *> >::_Swap_val, COMDAT
; _this$ = ecx

; 762  :     void _Swap_val(list& _Right) noexcept { // swap with _Right, same allocator

	push	ebp
	mov	ebp, esp
	sub	esp, 12					; 0000000cH
	mov	DWORD PTR [ebp-12], -858993460		; ccccccccH
	mov	DWORD PTR [ebp-8], -858993460		; ccccccccH
	mov	DWORD PTR [ebp-4], -858993460		; ccccccccH
	mov	DWORD PTR _this$[ebp], ecx

; 763  :         auto& _My_data    = _Get_data();

	mov	ecx, DWORD PTR _this$[ebp]
	call	?_Get_data@?$list@PAVRaven_Bot@@V?$allocator@PAVRaven_Bot@@@std@@@std@@AAEAAV?$_List_val@U?$_List_simple_types@PAVRaven_Bot@@@std@@@2@XZ ; std::list<Raven_Bot *,std::allocator<Raven_Bot *> >::_Get_data
	mov	DWORD PTR __My_data$[ebp], eax

; 764  :         auto& _Right_data = _Right._Get_data();

	mov	ecx, DWORD PTR __Right$[ebp]
	call	?_Get_data@?$list@PAVRaven_Bot@@V?$allocator@PAVRaven_Bot@@@std@@@std@@AAEAAV?$_List_val@U?$_List_simple_types@PAVRaven_Bot@@@std@@@2@XZ ; std::list<Raven_Bot *,std::allocator<Raven_Bot *> >::_Get_data
	mov	DWORD PTR __Right_data$[ebp], eax

; 765  :         _My_data._Swap_proxy_and_iterators(_Right_data);

	mov	eax, DWORD PTR __Right_data$[ebp]
	push	eax
	mov	ecx, DWORD PTR __My_data$[ebp]
	call	?_Swap_proxy_and_iterators@_Container_base12@std@@QAEXAAU12@@Z ; std::_Container_base12::_Swap_proxy_and_iterators

; 766  :         _Swap_adl(_My_data._Myhead, _Right_data._Myhead);

	mov	ecx, DWORD PTR __Right_data$[ebp]
	add	ecx, 4
	push	ecx
	mov	edx, DWORD PTR __My_data$[ebp]
	add	edx, 4
	push	edx
	call	??$_Swap_adl@PAU?$_List_node@PAVRaven_Bot@@PAX@std@@@std@@YAXAAPAU?$_List_node@PAVRaven_Bot@@PAX@0@0@Z ; std::_Swap_adl<std::_List_node<Raven_Bot *,void *> *>
	add	esp, 8

; 767  :         _STD swap(_My_data._Mysize, _Right_data._Mysize);

	mov	eax, DWORD PTR __Right_data$[ebp]
	add	eax, 8
	push	eax
	mov	ecx, DWORD PTR __My_data$[ebp]
	add	ecx, 8
	push	ecx
	call	??$swap@IX@std@@YAXAAI0@Z		; std::swap<unsigned int,void>
	add	esp, 8

; 768  :     }

	add	esp, 12					; 0000000cH
	cmp	ebp, esp
	call	__RTC_CheckEsp
	mov	esp, ebp
	pop	ebp
	ret	4
?_Swap_val@?$list@PAVRaven_Bot@@V?$allocator@PAVRaven_Bot@@@std@@@std@@AAEXAAV12@@Z ENDP ; std::list<Raven_Bot *,std::allocator<Raven_Bot *> >::_Swap_val
_TEXT	ENDS
; Function compile flags: /Odtp /RTCsu
; File C:\Program Files (x86)\Microsoft Visual Studio\2019\Community\VC\Tools\MSVC\14.21.27702\include\list
;	COMDAT ??4?$list@PAVRaven_Bot@@V?$allocator@PAVRaven_Bot@@@std@@@std@@QAEAAV01@$$QAV01@@Z
_TEXT	SEGMENT
$T1 = -5						; size = 1
_this$ = -4						; size = 4
__Right$ = 8						; size = 4
??4?$list@PAVRaven_Bot@@V?$allocator@PAVRaven_Bot@@@std@@@std@@QAEAAV01@$$QAV01@@Z PROC ; std::list<Raven_Bot *,std::allocator<Raven_Bot *> >::operator=, COMDAT
; _this$ = ecx

; 753  :         _NOEXCEPT_COND(noexcept(_Move_assign(_Right, _Choose_pocma<_Alnode>{}))) { // partially strengthened

	push	ebp
	mov	ebp, esp
	sub	esp, 8
	mov	DWORD PTR [ebp-8], -858993460		; ccccccccH
	mov	DWORD PTR [ebp-4], -858993460		; ccccccccH
	mov	DWORD PTR _this$[ebp], ecx

; 754  :         if (this != _STD addressof(_Right)) { // different, assign it

	mov	eax, DWORD PTR __Right$[ebp]
	push	eax
	call	??$addressof@V?$list@PAVRaven_Bot@@V?$allocator@PAVRaven_Bot@@@std@@@std@@@std@@YAPAV?$list@PAVRaven_Bot@@V?$allocator@PAVRaven_Bot@@@std@@@0@AAV10@@Z ; std::addressof<std::list<Raven_Bot *,std::allocator<Raven_Bot *> > >
	add	esp, 4
	cmp	DWORD PTR _this$[ebp], eax
	je	SHORT $LN2@operator

; 755  :             _Move_assign(_Right, _Choose_pocma<_Alnode>{});

	xor	ecx, ecx
	mov	BYTE PTR $T1[ebp], cl
	movzx	edx, BYTE PTR $T1[ebp]
	push	edx
	mov	eax, DWORD PTR __Right$[ebp]
	push	eax
	mov	ecx, DWORD PTR _this$[ebp]
	call	?_Move_assign@?$list@PAVRaven_Bot@@V?$allocator@PAVRaven_Bot@@@std@@@std@@AAEXAAV12@U_Equal_allocators@2@@Z ; std::list<Raven_Bot *,std::allocator<Raven_Bot *> >::_Move_assign
$LN2@operator:

; 756  :         }
; 757  : 
; 758  :         return *this;

	mov	eax, DWORD PTR _this$[ebp]

; 759  :     }

	add	esp, 8
	cmp	ebp, esp
	call	__RTC_CheckEsp
	mov	esp, ebp
	pop	ebp
	ret	4
??4?$list@PAVRaven_Bot@@V?$allocator@PAVRaven_Bot@@@std@@@std@@QAEAAV01@$$QAV01@@Z ENDP ; std::list<Raven_Bot *,std::allocator<Raven_Bot *> >::operator=
_TEXT	ENDS
; Function compile flags: /Odtp /RTCsu
; File C:\Program Files (x86)\Microsoft Visual Studio\2019\Community\VC\Tools\MSVC\14.21.27702\include\list
;	COMDAT ?_Move_assign@?$list@PAVRaven_Bot@@V?$allocator@PAVRaven_Bot@@@std@@@std@@AAEXAAV12@U_Equal_allocators@2@@Z
_TEXT	SEGMENT
_this$ = -4						; size = 4
__Right$ = 8						; size = 4
___formal$ = 12						; size = 1
?_Move_assign@?$list@PAVRaven_Bot@@V?$allocator@PAVRaven_Bot@@@std@@@std@@AAEXAAV12@U_Equal_allocators@2@@Z PROC ; std::list<Raven_Bot *,std::allocator<Raven_Bot *> >::_Move_assign, COMDAT
; _this$ = ecx

; 716  :     void _Move_assign(list& _Right, _Equal_allocators) noexcept {

	push	ebp
	mov	ebp, esp
	push	ecx
	mov	DWORD PTR [ebp-4], -858993460		; ccccccccH
	mov	DWORD PTR _this$[ebp], ecx

; 717  :         clear();

	mov	ecx, DWORD PTR _this$[ebp]
	call	?clear@?$list@PAVRaven_Bot@@V?$allocator@PAVRaven_Bot@@@std@@@std@@QAEXXZ ; std::list<Raven_Bot *,std::allocator<Raven_Bot *> >::clear

; 718  :         _Pocma(_Getal(), _Right._Getal());

	mov	ecx, DWORD PTR __Right$[ebp]
	call	?_Getal@?$list@PAVRaven_Bot@@V?$allocator@PAVRaven_Bot@@@std@@@std@@AAEAAV?$allocator@U?$_List_node@PAVRaven_Bot@@PAX@std@@@2@XZ ; std::list<Raven_Bot *,std::allocator<Raven_Bot *> >::_Getal
	push	eax
	mov	ecx, DWORD PTR _this$[ebp]
	call	?_Getal@?$list@PAVRaven_Bot@@V?$allocator@PAVRaven_Bot@@@std@@@std@@AAEAAV?$allocator@U?$_List_node@PAVRaven_Bot@@PAX@std@@@2@XZ ; std::list<Raven_Bot *,std::allocator<Raven_Bot *> >::_Getal
	push	eax
	call	??$_Pocma@V?$allocator@U?$_List_node@PAVRaven_Bot@@PAX@std@@@std@@@std@@YAXAAV?$allocator@U?$_List_node@PAVRaven_Bot@@PAX@std@@@0@0@Z ; std::_Pocma<std::allocator<std::_List_node<Raven_Bot *,void *> > >
	add	esp, 8

; 719  :         _Swap_val(_Right);

	mov	eax, DWORD PTR __Right$[ebp]
	push	eax
	mov	ecx, DWORD PTR _this$[ebp]
	call	?_Swap_val@?$list@PAVRaven_Bot@@V?$allocator@PAVRaven_Bot@@@std@@@std@@AAEXAAV12@@Z ; std::list<Raven_Bot *,std::allocator<Raven_Bot *> >::_Swap_val

; 720  :     }

	add	esp, 4
	cmp	ebp, esp
	call	__RTC_CheckEsp
	mov	esp, ebp
	pop	ebp
	ret	8
?_Move_assign@?$list@PAVRaven_Bot@@V?$allocator@PAVRaven_Bot@@@std@@@std@@AAEXAAV12@U_Equal_allocators@2@@Z ENDP ; std::list<Raven_Bot *,std::allocator<Raven_Bot *> >::_Move_assign
_TEXT	ENDS
; Function compile flags: /Odtp /RTCsu
; File C:\Program Files (x86)\Microsoft Visual Studio\2019\Community\VC\Tools\MSVC\14.21.27702\include\list
;	COMDAT ??0?$list@PAVRaven_Bot@@V?$allocator@PAVRaven_Bot@@@std@@@std@@QAE@XZ
_TEXT	SEGMENT
$T1 = -5						; size = 1
_this$ = -4						; size = 4
??0?$list@PAVRaven_Bot@@V?$allocator@PAVRaven_Bot@@@std@@@std@@QAE@XZ PROC ; std::list<Raven_Bot *,std::allocator<Raven_Bot *> >::list<Raven_Bot *,std::allocator<Raven_Bot *> >, COMDAT
; _this$ = ecx

; 603  :     list() : _Mypair(_Zero_then_variadic_args_t()) { // construct empty list

	push	ebp
	mov	ebp, esp
	sub	esp, 8
	mov	DWORD PTR [ebp-8], -858993460		; ccccccccH
	mov	DWORD PTR [ebp-4], -858993460		; ccccccccH
	mov	DWORD PTR _this$[ebp], ecx
	movzx	eax, BYTE PTR $T1[ebp]
	push	eax
	mov	ecx, DWORD PTR _this$[ebp]
	call	??$?0$$V@?$_Compressed_pair@V?$allocator@U?$_List_node@PAVRaven_Bot@@PAX@std@@@std@@V?$_List_val@U?$_List_simple_types@PAVRaven_Bot@@@std@@@2@$00@std@@QAE@U_Zero_then_variadic_args_t@1@@Z ; std::_Compressed_pair<std::allocator<std::_List_node<Raven_Bot *,void *> >,std::_List_val<std::_List_simple_types<Raven_Bot *> >,1>::_Compressed_pair<std::allocator<std::_List_node<Raven_Bot *,void *> >,std::_List_val<std::_List_simple_types<Raven_Bot *> >,1><>

; 604  :         _Alloc_sentinel_and_proxy();

	mov	ecx, DWORD PTR _this$[ebp]
	call	?_Alloc_sentinel_and_proxy@?$list@PAVRaven_Bot@@V?$allocator@PAVRaven_Bot@@@std@@@std@@AAEXXZ ; std::list<Raven_Bot *,std::allocator<Raven_Bot *> >::_Alloc_sentinel_and_proxy

; 605  :     }

	mov	eax, DWORD PTR _this$[ebp]
	add	esp, 8
	cmp	ebp, esp
	call	__RTC_CheckEsp
	mov	esp, ebp
	pop	ebp
	ret	0
??0?$list@PAVRaven_Bot@@V?$allocator@PAVRaven_Bot@@@std@@@std@@QAE@XZ ENDP ; std::list<Raven_Bot *,std::allocator<Raven_Bot *> >::list<Raven_Bot *,std::allocator<Raven_Bot *> >
_TEXT	ENDS
; Function compile flags: /Odtp /RTCsu
; File C:\Program Files (x86)\Microsoft Visual Studio\2019\Community\VC\Tools\MSVC\14.21.27702\include\xmemory0
;	COMDAT ?deallocate@?$_Default_allocator_traits@V?$allocator@U?$_List_node@PAVRaven_Bot@@PAX@std@@@std@@@std@@SAXAAV?$allocator@U?$_List_node@PAVRaven_Bot@@PAX@std@@@2@QAU?$_List_node@PAVRaven_Bot@@PAX@2@I@Z
_TEXT	SEGMENT
___formal$ = 8						; size = 4
__Ptr$ = 12						; size = 4
__Count$ = 16						; size = 4
?deallocate@?$_Default_allocator_traits@V?$allocator@U?$_List_node@PAVRaven_Bot@@PAX@std@@@std@@@std@@SAXAAV?$allocator@U?$_List_node@PAVRaven_Bot@@PAX@std@@@2@QAU?$_List_node@PAVRaven_Bot@@PAX@2@I@Z PROC ; std::_Default_allocator_traits<std::allocator<std::_List_node<Raven_Bot *,void *> > >::deallocate, COMDAT

; 813  :     static void deallocate(_Alloc&, const pointer _Ptr, const size_type _Count) { // deallocate _Count elements at _Ptr

	push	ebp
	mov	ebp, esp

; 814  :         // no overflow check on the following multiply; we assume _Allocate did that check
; 815  :         _Deallocate<_New_alignof<value_type>>(_Ptr, sizeof(value_type) * _Count);

	imul	eax, DWORD PTR __Count$[ebp], 12
	push	eax
	mov	ecx, DWORD PTR __Ptr$[ebp]
	push	ecx
	call	??$_Deallocate@$07$0A@@std@@YAXPAXI@Z	; std::_Deallocate<8,0>
	add	esp, 8

; 816  :     }

	cmp	ebp, esp
	call	__RTC_CheckEsp
	pop	ebp
	ret	0
?deallocate@?$_Default_allocator_traits@V?$allocator@U?$_List_node@PAVRaven_Bot@@PAX@std@@@std@@@std@@SAXAAV?$allocator@U?$_List_node@PAVRaven_Bot@@PAX@std@@@2@QAU?$_List_node@PAVRaven_Bot@@PAX@2@I@Z ENDP ; std::_Default_allocator_traits<std::allocator<std::_List_node<Raven_Bot *,void *> > >::deallocate
_TEXT	ENDS
; Function compile flags: /Odtp /RTCsu
; File C:\Program Files (x86)\Microsoft Visual Studio\2019\Community\VC\Tools\MSVC\14.21.27702\include\xmemory0
;	COMDAT ?allocate@?$allocator@U?$_List_node@PAVRaven_Bot@@PAX@std@@@std@@QAEPAU?$_List_node@PAVRaven_Bot@@PAX@2@I@Z
_TEXT	SEGMENT
_this$ = -4						; size = 4
__Count$ = 8						; size = 4
?allocate@?$allocator@U?$_List_node@PAVRaven_Bot@@PAX@std@@@std@@QAEPAU?$_List_node@PAVRaven_Bot@@PAX@2@I@Z PROC ; std::allocator<std::_List_node<Raven_Bot *,void *> >::allocate, COMDAT
; _this$ = ecx

; 930  :         _CRT_GUARDOVERFLOW const size_t _Count) { // allocate array of _Count elements

	push	ebp
	mov	ebp, esp
	push	ecx
	mov	DWORD PTR [ebp-4], -858993460		; ccccccccH
	mov	DWORD PTR _this$[ebp], ecx

; 931  :         return static_cast<_Ty*>(_Allocate<_New_alignof<_Ty>>(_Get_size_of_n<sizeof(_Ty)>(_Count)));

	mov	eax, DWORD PTR __Count$[ebp]
	push	eax
	call	??$_Get_size_of_n@$0M@@std@@YAII@Z	; std::_Get_size_of_n<12>
	add	esp, 4
	push	eax
	call	??$_Allocate@$07U_Default_allocate_traits@std@@$0A@@std@@YAPAXI@Z ; std::_Allocate<8,std::_Default_allocate_traits,0>
	add	esp, 4

; 932  :     }

	add	esp, 4
	cmp	ebp, esp
	call	__RTC_CheckEsp
	mov	esp, ebp
	pop	ebp
	ret	4
?allocate@?$allocator@U?$_List_node@PAVRaven_Bot@@PAX@std@@@std@@QAEPAU?$_List_node@PAVRaven_Bot@@PAX@2@I@Z ENDP ; std::allocator<std::_List_node<Raven_Bot *,void *> >::allocate
_TEXT	ENDS
; Function compile flags: /Odtp /RTCsu
; File C:\Program Files (x86)\Microsoft Visual Studio\2019\Community\VC\Tools\MSVC\14.21.27702\include\xmemory0
;	COMDAT ??0?$allocator@U?$_List_node@PAVRaven_Bot@@PAX@std@@@std@@QAE@XZ
_TEXT	SEGMENT
_this$ = -4						; size = 4
??0?$allocator@U?$_List_node@PAVRaven_Bot@@PAX@std@@@std@@QAE@XZ PROC ; std::allocator<std::_List_node<Raven_Bot *,void *> >::allocator<std::_List_node<Raven_Bot *,void *> >, COMDAT
; _this$ = ecx

; 916  :     constexpr allocator() noexcept { // construct default allocator (do nothing)

	push	ebp
	mov	ebp, esp
	push	ecx
	mov	DWORD PTR [ebp-4], -858993460		; ccccccccH
	mov	DWORD PTR _this$[ebp], ecx

; 917  :     }

	mov	eax, DWORD PTR _this$[ebp]
	mov	esp, ebp
	pop	ebp
	ret	0
??0?$allocator@U?$_List_node@PAVRaven_Bot@@PAX@std@@@std@@QAE@XZ ENDP ; std::allocator<std::_List_node<Raven_Bot *,void *> >::allocator<std::_List_node<Raven_Bot *,void *> >
_TEXT	ENDS
; Function compile flags: /Odtp /RTCsu
; File C:\Users\Nathanael\Desktop\raven_VS2015\VS2015\Buckland_Chapter7 to 10_Raven\Raven_Bot.h
;	COMDAT ?GetSensoryMem@Raven_Bot@@QBEQAVRaven_SensoryMemory@@XZ
_TEXT	SEGMENT
_this$ = -4						; size = 4
?GetSensoryMem@Raven_Bot@@QBEQAVRaven_SensoryMemory@@XZ PROC ; Raven_Bot::GetSensoryMem, COMDAT
; _this$ = ecx

; 211  :   Raven_SensoryMemory* const         GetSensoryMem()const{return m_pSensoryMem;}

	push	ebp
	mov	ebp, esp
	push	ecx
	mov	DWORD PTR [ebp-4], -858993460		; ccccccccH
	mov	DWORD PTR _this$[ebp], ecx
	mov	eax, DWORD PTR _this$[ebp]
	mov	eax, DWORD PTR [eax+156]
	mov	esp, ebp
	pop	ebp
	ret	0
?GetSensoryMem@Raven_Bot@@QBEQAVRaven_SensoryMemory@@XZ ENDP ; Raven_Bot::GetSensoryMem
_TEXT	ENDS
; Function compile flags: /Odtp /RTCsu
; File C:\Users\Nathanael\Desktop\raven_VS2015\VS2015\Buckland_Chapter7 to 10_Raven\Raven_Bot.h
;	COMDAT ?isAlive@Raven_Bot@@QBE_NXZ
_TEXT	SEGMENT
tv66 = -8						; size = 4
_this$ = -4						; size = 4
?isAlive@Raven_Bot@@QBE_NXZ PROC			; Raven_Bot::isAlive, COMDAT
; _this$ = ecx

; 157  :   bool          isAlive()const{return m_Status == alive;}

	push	ebp
	mov	ebp, esp
	sub	esp, 8
	mov	DWORD PTR [ebp-8], -858993460		; ccccccccH
	mov	DWORD PTR [ebp-4], -858993460		; ccccccccH
	mov	DWORD PTR _this$[ebp], ecx
	mov	eax, DWORD PTR _this$[ebp]
	cmp	DWORD PTR [eax+144], 0
	jne	SHORT $LN3@isAlive
	mov	DWORD PTR tv66[ebp], 1
	jmp	SHORT $LN4@isAlive
$LN3@isAlive:
	mov	DWORD PTR tv66[ebp], 0
$LN4@isAlive:
	mov	al, BYTE PTR tv66[ebp]
	mov	esp, ebp
	pop	ebp
	ret	0
?isAlive@Raven_Bot@@QBE_NXZ ENDP			; Raven_Bot::isAlive
_TEXT	ENDS
; Function compile flags: /Odtp /RTCsu
; File C:\Users\Nathanael\Desktop\raven_VS2015\VS2015\Common\Game\BaseGameEntity.h
;	COMDAT ?Pos@BaseGameEntity@@QBE?AUVector2D@@XZ
_TEXT	SEGMENT
_this$ = -4						; size = 4
___$ReturnUdt$ = 8					; size = 4
?Pos@BaseGameEntity@@QBE?AUVector2D@@XZ PROC		; BaseGameEntity::Pos, COMDAT
; _this$ = ecx

; 89   :   Vector2D     Pos()const{return m_vPosition;}

	push	ebp
	mov	ebp, esp
	push	ecx
	mov	DWORD PTR [ebp-4], -858993460		; ccccccccH
	mov	DWORD PTR _this$[ebp], ecx
	mov	eax, DWORD PTR _this$[ebp]
	add	eax, 24					; 00000018H
	mov	ecx, DWORD PTR ___$ReturnUdt$[ebp]
	mov	edx, DWORD PTR [eax]
	mov	DWORD PTR [ecx], edx
	mov	edx, DWORD PTR [eax+4]
	mov	DWORD PTR [ecx+4], edx
	mov	edx, DWORD PTR [eax+8]
	mov	DWORD PTR [ecx+8], edx
	mov	eax, DWORD PTR [eax+12]
	mov	DWORD PTR [ecx+12], eax
	mov	eax, DWORD PTR ___$ReturnUdt$[ebp]
	mov	esp, ebp
	pop	ebp
	ret	4
?Pos@BaseGameEntity@@QBE?AUVector2D@@XZ ENDP		; BaseGameEntity::Pos
_TEXT	ENDS
; Function compile flags: /Odtp /RTCsu
; File C:\Users\Nathanael\Desktop\raven_VS2015\VS2015\Buckland_Chapter7 to 10_Raven\Raven_TargetingSystem.cpp
_TEXT	SEGMENT
_this$ = -4						; size = 4
?GetTimeTargetHasBeenOutOfView@Raven_TargetingSystem@@QBENXZ PROC ; Raven_TargetingSystem::GetTimeTargetHasBeenOutOfView
; _this$ = ecx

; 68   : {

	push	ebp
	mov	ebp, esp
	push	ecx
	mov	DWORD PTR [ebp-4], -858993460		; ccccccccH
	mov	DWORD PTR _this$[ebp], ecx

; 69   :   return m_pOwner->GetSensoryMem()->GetTimeOpponentHasBeenOutOfView(m_pCurrentTarget);

	mov	eax, DWORD PTR _this$[ebp]
	mov	ecx, DWORD PTR [eax+4]
	push	ecx
	mov	edx, DWORD PTR _this$[ebp]
	mov	ecx, DWORD PTR [edx]
	call	?GetSensoryMem@Raven_Bot@@QBEQAVRaven_SensoryMemory@@XZ ; Raven_Bot::GetSensoryMem
	mov	ecx, eax
	call	?GetTimeOpponentHasBeenOutOfView@Raven_SensoryMemory@@QBENPAVRaven_Bot@@@Z ; Raven_SensoryMemory::GetTimeOpponentHasBeenOutOfView

; 70   : }

	add	esp, 4
	cmp	ebp, esp
	call	__RTC_CheckEsp
	mov	esp, ebp
	pop	ebp
	ret	0
?GetTimeTargetHasBeenOutOfView@Raven_TargetingSystem@@QBENXZ ENDP ; Raven_TargetingSystem::GetTimeTargetHasBeenOutOfView
_TEXT	ENDS
; Function compile flags: /Odtp /RTCsu
; File C:\Users\Nathanael\Desktop\raven_VS2015\VS2015\Buckland_Chapter7 to 10_Raven\Raven_TargetingSystem.cpp
_TEXT	SEGMENT
_this$ = -4						; size = 4
?GetTimeTargetHasBeenVisible@Raven_TargetingSystem@@QBENXZ PROC ; Raven_TargetingSystem::GetTimeTargetHasBeenVisible
; _this$ = ecx

; 63   : {

	push	ebp
	mov	ebp, esp
	push	ecx
	mov	DWORD PTR [ebp-4], -858993460		; ccccccccH
	mov	DWORD PTR _this$[ebp], ecx

; 64   :   return m_pOwner->GetSensoryMem()->GetTimeOpponentHasBeenVisible(m_pCurrentTarget);

	mov	eax, DWORD PTR _this$[ebp]
	mov	ecx, DWORD PTR [eax+4]
	push	ecx
	mov	edx, DWORD PTR _this$[ebp]
	mov	ecx, DWORD PTR [edx]
	call	?GetSensoryMem@Raven_Bot@@QBEQAVRaven_SensoryMemory@@XZ ; Raven_Bot::GetSensoryMem
	mov	ecx, eax
	call	?GetTimeOpponentHasBeenVisible@Raven_SensoryMemory@@QBENPAVRaven_Bot@@@Z ; Raven_SensoryMemory::GetTimeOpponentHasBeenVisible

; 65   : }

	add	esp, 4
	cmp	ebp, esp
	call	__RTC_CheckEsp
	mov	esp, ebp
	pop	ebp
	ret	0
?GetTimeTargetHasBeenVisible@Raven_TargetingSystem@@QBENXZ ENDP ; Raven_TargetingSystem::GetTimeTargetHasBeenVisible
_TEXT	ENDS
; Function compile flags: /Odtp /RTCsu
; File C:\Users\Nathanael\Desktop\raven_VS2015\VS2015\Buckland_Chapter7 to 10_Raven\Raven_TargetingSystem.cpp
_TEXT	SEGMENT
_this$ = -4						; size = 4
___$ReturnUdt$ = 8					; size = 4
?GetLastRecordedPosition@Raven_TargetingSystem@@QBE?AUVector2D@@XZ PROC ; Raven_TargetingSystem::GetLastRecordedPosition
; _this$ = ecx

; 58   : {

	push	ebp
	mov	ebp, esp
	push	ecx
	mov	DWORD PTR [ebp-4], -858993460		; ccccccccH
	mov	DWORD PTR _this$[ebp], ecx

; 59   :   return m_pOwner->GetSensoryMem()->GetLastRecordedPositionOfOpponent(m_pCurrentTarget);

	mov	eax, DWORD PTR _this$[ebp]
	mov	ecx, DWORD PTR [eax+4]
	push	ecx
	mov	edx, DWORD PTR ___$ReturnUdt$[ebp]
	push	edx
	mov	eax, DWORD PTR _this$[ebp]
	mov	ecx, DWORD PTR [eax]
	call	?GetSensoryMem@Raven_Bot@@QBEQAVRaven_SensoryMemory@@XZ ; Raven_Bot::GetSensoryMem
	mov	ecx, eax
	call	?GetLastRecordedPositionOfOpponent@Raven_SensoryMemory@@QBE?AUVector2D@@PAVRaven_Bot@@@Z ; Raven_SensoryMemory::GetLastRecordedPositionOfOpponent
	mov	eax, DWORD PTR ___$ReturnUdt$[ebp]

; 60   : }

	add	esp, 4
	cmp	ebp, esp
	call	__RTC_CheckEsp
	mov	esp, ebp
	pop	ebp
	ret	4
?GetLastRecordedPosition@Raven_TargetingSystem@@QBE?AUVector2D@@XZ ENDP ; Raven_TargetingSystem::GetLastRecordedPosition
_TEXT	ENDS
; Function compile flags: /Odtp /RTCsu
; File C:\Users\Nathanael\Desktop\raven_VS2015\VS2015\Buckland_Chapter7 to 10_Raven\Raven_TargetingSystem.cpp
_TEXT	SEGMENT
_this$ = -4						; size = 4
?isTargetShootable@Raven_TargetingSystem@@QBE_NXZ PROC	; Raven_TargetingSystem::isTargetShootable
; _this$ = ecx

; 53   : {

	push	ebp
	mov	ebp, esp
	push	ecx
	mov	DWORD PTR [ebp-4], -858993460		; ccccccccH
	mov	DWORD PTR _this$[ebp], ecx

; 54   :   return m_pOwner->GetSensoryMem()->isOpponentShootable(m_pCurrentTarget);

	mov	eax, DWORD PTR _this$[ebp]
	mov	ecx, DWORD PTR [eax+4]
	push	ecx
	mov	edx, DWORD PTR _this$[ebp]
	mov	ecx, DWORD PTR [edx]
	call	?GetSensoryMem@Raven_Bot@@QBEQAVRaven_SensoryMemory@@XZ ; Raven_Bot::GetSensoryMem
	mov	ecx, eax
	call	?isOpponentShootable@Raven_SensoryMemory@@QBE_NPAVRaven_Bot@@@Z ; Raven_SensoryMemory::isOpponentShootable

; 55   : }

	add	esp, 4
	cmp	ebp, esp
	call	__RTC_CheckEsp
	mov	esp, ebp
	pop	ebp
	ret	0
?isTargetShootable@Raven_TargetingSystem@@QBE_NXZ ENDP	; Raven_TargetingSystem::isTargetShootable
_TEXT	ENDS
; Function compile flags: /Odtp /RTCsu
; File C:\Users\Nathanael\Desktop\raven_VS2015\VS2015\Buckland_Chapter7 to 10_Raven\Raven_TargetingSystem.cpp
_TEXT	SEGMENT
_this$ = -4						; size = 4
?isTargetWithinFOV@Raven_TargetingSystem@@QBE_NXZ PROC	; Raven_TargetingSystem::isTargetWithinFOV
; _this$ = ecx

; 48   : {

	push	ebp
	mov	ebp, esp
	push	ecx
	mov	DWORD PTR [ebp-4], -858993460		; ccccccccH
	mov	DWORD PTR _this$[ebp], ecx

; 49   :   return m_pOwner->GetSensoryMem()->isOpponentWithinFOV(m_pCurrentTarget);

	mov	eax, DWORD PTR _this$[ebp]
	mov	ecx, DWORD PTR [eax+4]
	push	ecx
	mov	edx, DWORD PTR _this$[ebp]
	mov	ecx, DWORD PTR [edx]
	call	?GetSensoryMem@Raven_Bot@@QBEQAVRaven_SensoryMemory@@XZ ; Raven_Bot::GetSensoryMem
	mov	ecx, eax
	call	?isOpponentWithinFOV@Raven_SensoryMemory@@QBE_NPAVRaven_Bot@@@Z ; Raven_SensoryMemory::isOpponentWithinFOV

; 50   : }

	add	esp, 4
	cmp	ebp, esp
	call	__RTC_CheckEsp
	mov	esp, ebp
	pop	ebp
	ret	0
?isTargetWithinFOV@Raven_TargetingSystem@@QBE_NXZ ENDP	; Raven_TargetingSystem::isTargetWithinFOV
_TEXT	ENDS
; Function compile flags: /Odtp /RTCsu
; File C:\Users\Nathanael\Desktop\raven_VS2015\VS2015\Buckland_Chapter7 to 10_Raven\Raven_TargetingSystem.cpp
_TEXT	SEGMENT
tv179 = -160						; size = 4
tv79 = -156						; size = 4
tv176 = -152						; size = 4
tv174 = -148						; size = 4
$T2 = -144						; size = 16
$T3 = -128						; size = 16
$T4 = -112						; size = 12
$T5 = -97						; size = 1
$T6 = -96						; size = 12
$T7 = -84						; size = 12
_dist$8 = -72						; size = 8
_curBot$ = -60						; size = 12
_SensedBots$ = -40					; size = 12
_ClosestDistSoFar$ = -24				; size = 8
_this$ = -16						; size = 4
__$EHRec$ = -12						; size = 12
?Update@Raven_TargetingSystem@@QAEXXZ PROC		; Raven_TargetingSystem::Update
; _this$ = ecx

; 19   : {

	push	ebp
	mov	ebp, esp
	push	-1
	push	__ehhandler$?Update@Raven_TargetingSystem@@QAEXXZ
	mov	eax, DWORD PTR fs:0
	push	eax
	sub	esp, 148				; 00000094H
	push	edi
	push	ecx
	lea	edi, DWORD PTR [ebp-160]
	mov	ecx, 37					; 00000025H
	mov	eax, -858993460				; ccccccccH
	rep stosd
	pop	ecx
	mov	eax, DWORD PTR ___security_cookie
	xor	eax, ebp
	push	eax
	lea	eax, DWORD PTR __$EHRec$[ebp]
	mov	DWORD PTR fs:0, eax
	mov	DWORD PTR _this$[ebp], ecx

; 20   :   double ClosestDistSoFar = MaxDouble;

	movsd	xmm0, QWORD PTR __real@7fefffffffffffff
	movsd	QWORD PTR _ClosestDistSoFar$[ebp], xmm0

; 21   :   m_pCurrentTarget       = 0;

	mov	eax, DWORD PTR _this$[ebp]
	mov	DWORD PTR [eax+4], 0

; 22   : 
; 23   :   //grab a list of all the opponents the owner can sense
; 24   :   std::list<Raven_Bot*> SensedBots;

	lea	ecx, DWORD PTR _SensedBots$[ebp]
	call	??0?$list@PAVRaven_Bot@@V?$allocator@PAVRaven_Bot@@@std@@@std@@QAE@XZ ; std::list<Raven_Bot *,std::allocator<Raven_Bot *> >::list<Raven_Bot *,std::allocator<Raven_Bot *> >
	mov	DWORD PTR __$EHRec$[ebp+8], 0

; 25   :   SensedBots = m_pOwner->GetSensoryMem()->GetListOfRecentlySensedOpponents();

	lea	ecx, DWORD PTR $T7[ebp]
	push	ecx
	mov	edx, DWORD PTR _this$[ebp]
	mov	ecx, DWORD PTR [edx]
	call	?GetSensoryMem@Raven_Bot@@QBEQAVRaven_SensoryMemory@@XZ ; Raven_Bot::GetSensoryMem
	mov	ecx, eax
	call	?GetListOfRecentlySensedOpponents@Raven_SensoryMemory@@QBE?AV?$list@PAVRaven_Bot@@V?$allocator@PAVRaven_Bot@@@std@@@std@@XZ ; Raven_SensoryMemory::GetListOfRecentlySensedOpponents
	mov	DWORD PTR tv174[ebp], eax
	mov	eax, DWORD PTR tv174[ebp]
	push	eax
	lea	ecx, DWORD PTR _SensedBots$[ebp]
	call	??4?$list@PAVRaven_Bot@@V?$allocator@PAVRaven_Bot@@@std@@@std@@QAEAAV01@$$QAV01@@Z ; std::list<Raven_Bot *,std::allocator<Raven_Bot *> >::operator=
	lea	ecx, DWORD PTR $T7[ebp]
	call	??1?$list@PAVRaven_Bot@@V?$allocator@PAVRaven_Bot@@@std@@@std@@QAE@XZ ; std::list<Raven_Bot *,std::allocator<Raven_Bot *> >::~list<Raven_Bot *,std::allocator<Raven_Bot *> >

; 26   :   
; 27   :   std::list<Raven_Bot*>::const_iterator curBot = SensedBots.begin();

	lea	ecx, DWORD PTR $T6[ebp]
	push	ecx
	lea	ecx, DWORD PTR _SensedBots$[ebp]
	call	?begin@?$list@PAVRaven_Bot@@V?$allocator@PAVRaven_Bot@@@std@@@std@@QAE?AV?$_List_iterator@V?$_List_val@U?$_List_simple_types@PAVRaven_Bot@@@std@@@std@@@2@XZ ; std::list<Raven_Bot *,std::allocator<Raven_Bot *> >::begin
	mov	DWORD PTR tv176[ebp], eax
	mov	edx, DWORD PTR tv176[ebp]
	push	edx
	lea	ecx, DWORD PTR _curBot$[ebp]
	call	??0?$_List_const_iterator@V?$_List_val@U?$_List_simple_types@PAVRaven_Bot@@@std@@@std@@@std@@QAE@$$QAV01@@Z
	mov	BYTE PTR __$EHRec$[ebp+8], 1
	lea	ecx, DWORD PTR $T6[ebp]
	call	??1?$_List_iterator@V?$_List_val@U?$_List_simple_types@PAVRaven_Bot@@@std@@@std@@@std@@QAE@XZ
	jmp	SHORT $LN4@Update
$LN2@Update:

; 28   :   for (curBot; curBot != SensedBots.end(); ++curBot)

	lea	ecx, DWORD PTR _curBot$[ebp]
	call	??E?$_List_const_iterator@V?$_List_val@U?$_List_simple_types@PAVRaven_Bot@@@std@@@std@@@std@@QAEAAV01@XZ ; std::_List_const_iterator<std::_List_val<std::_List_simple_types<Raven_Bot *> > >::operator++
$LN4@Update:
	lea	eax, DWORD PTR $T4[ebp]
	push	eax
	lea	ecx, DWORD PTR _SensedBots$[ebp]
	call	?end@?$list@PAVRaven_Bot@@V?$allocator@PAVRaven_Bot@@@std@@@std@@QAE?AV?$_List_iterator@V?$_List_val@U?$_List_simple_types@PAVRaven_Bot@@@std@@@std@@@2@XZ ; std::list<Raven_Bot *,std::allocator<Raven_Bot *> >::end
	mov	DWORD PTR tv79[ebp], eax
	mov	ecx, DWORD PTR tv79[ebp]
	mov	DWORD PTR tv179[ebp], ecx
	mov	BYTE PTR __$EHRec$[ebp+8], 2
	mov	edx, DWORD PTR tv179[ebp]
	push	edx
	lea	ecx, DWORD PTR _curBot$[ebp]
	call	??9?$_List_const_iterator@V?$_List_val@U?$_List_simple_types@PAVRaven_Bot@@@std@@@std@@@std@@QBE_NABV01@@Z ; std::_List_const_iterator<std::_List_val<std::_List_simple_types<Raven_Bot *> > >::operator!=
	mov	BYTE PTR $T5[ebp], al
	mov	BYTE PTR __$EHRec$[ebp+8], 1
	lea	ecx, DWORD PTR $T4[ebp]
	call	??1?$_List_iterator@V?$_List_val@U?$_List_simple_types@PAVRaven_Bot@@@std@@@std@@@std@@QAE@XZ
	movzx	eax, BYTE PTR $T5[ebp]
	test	eax, eax
	je	$LN3@Update

; 29   :   {
; 30   :     //make sure the bot is alive and that it is not the owner
; 31   :     if ((*curBot)->isAlive() && (*curBot != m_pOwner) )

	lea	ecx, DWORD PTR _curBot$[ebp]
	call	??D?$_List_const_iterator@V?$_List_val@U?$_List_simple_types@PAVRaven_Bot@@@std@@@std@@@std@@QBEABQAVRaven_Bot@@XZ ; std::_List_const_iterator<std::_List_val<std::_List_simple_types<Raven_Bot *> > >::operator*
	mov	ecx, DWORD PTR [eax]
	call	?isAlive@Raven_Bot@@QBE_NXZ		; Raven_Bot::isAlive
	movzx	ecx, al
	test	ecx, ecx
	je	SHORT $LN6@Update
	lea	ecx, DWORD PTR _curBot$[ebp]
	call	??D?$_List_const_iterator@V?$_List_val@U?$_List_simple_types@PAVRaven_Bot@@@std@@@std@@@std@@QBEABQAVRaven_Bot@@XZ ; std::_List_const_iterator<std::_List_val<std::_List_simple_types<Raven_Bot *> > >::operator*
	mov	edx, DWORD PTR _this$[ebp]
	mov	eax, DWORD PTR [eax]
	cmp	eax, DWORD PTR [edx]
	je	SHORT $LN6@Update

; 32   :     {
; 33   :       double dist = Vec2DDistanceSq((*curBot)->Pos(), m_pOwner->Pos());

	lea	ecx, DWORD PTR $T3[ebp]
	push	ecx
	mov	edx, DWORD PTR _this$[ebp]
	mov	ecx, DWORD PTR [edx]
	call	?Pos@BaseGameEntity@@QBE?AUVector2D@@XZ	; BaseGameEntity::Pos
	push	eax
	lea	eax, DWORD PTR $T2[ebp]
	push	eax
	lea	ecx, DWORD PTR _curBot$[ebp]
	call	??D?$_List_const_iterator@V?$_List_val@U?$_List_simple_types@PAVRaven_Bot@@@std@@@std@@@std@@QBEABQAVRaven_Bot@@XZ ; std::_List_const_iterator<std::_List_val<std::_List_simple_types<Raven_Bot *> > >::operator*
	mov	ecx, DWORD PTR [eax]
	call	?Pos@BaseGameEntity@@QBE?AUVector2D@@XZ	; BaseGameEntity::Pos
	push	eax
	call	?Vec2DDistanceSq@@YANABUVector2D@@0@Z	; Vec2DDistanceSq
	add	esp, 8
	fstp	QWORD PTR _dist$8[ebp]

; 34   : 
; 35   :       if (dist < ClosestDistSoFar)

	movsd	xmm0, QWORD PTR _ClosestDistSoFar$[ebp]
	comisd	xmm0, QWORD PTR _dist$8[ebp]
	jbe	SHORT $LN6@Update

; 36   :       {
; 37   :         ClosestDistSoFar = dist;

	movsd	xmm0, QWORD PTR _dist$8[ebp]
	movsd	QWORD PTR _ClosestDistSoFar$[ebp], xmm0

; 38   :         m_pCurrentTarget = *curBot;

	lea	ecx, DWORD PTR _curBot$[ebp]
	call	??D?$_List_const_iterator@V?$_List_val@U?$_List_simple_types@PAVRaven_Bot@@@std@@@std@@@std@@QBEABQAVRaven_Bot@@XZ ; std::_List_const_iterator<std::_List_val<std::_List_simple_types<Raven_Bot *> > >::operator*
	mov	ecx, DWORD PTR _this$[ebp]
	mov	edx, DWORD PTR [eax]
	mov	DWORD PTR [ecx+4], edx
$LN6@Update:

; 39   :       }
; 40   :     }
; 41   :   }

	jmp	$LN2@Update
$LN3@Update:

; 42   : }

	mov	BYTE PTR __$EHRec$[ebp+8], 0
	lea	ecx, DWORD PTR _curBot$[ebp]
	call	??1?$_List_const_iterator@V?$_List_val@U?$_List_simple_types@PAVRaven_Bot@@@std@@@std@@@std@@QAE@XZ
	mov	DWORD PTR __$EHRec$[ebp+8], -1
	lea	ecx, DWORD PTR _SensedBots$[ebp]
	call	??1?$list@PAVRaven_Bot@@V?$allocator@PAVRaven_Bot@@@std@@@std@@QAE@XZ ; std::list<Raven_Bot *,std::allocator<Raven_Bot *> >::~list<Raven_Bot *,std::allocator<Raven_Bot *> >
	push	edx
	mov	ecx, ebp
	push	eax
	lea	edx, DWORD PTR $LN17@Update
	call	@_RTC_CheckStackVars@8
	pop	eax
	pop	edx
	mov	ecx, DWORD PTR __$EHRec$[ebp]
	mov	DWORD PTR fs:0, ecx
	pop	ecx
	pop	edi
	add	esp, 160				; 000000a0H
	cmp	ebp, esp
	call	__RTC_CheckEsp
	mov	esp, ebp
	pop	ebp
	ret	0
	npad	1
$LN17@Update:
	DD	2
	DD	$LN16@Update
$LN16@Update:
	DD	-40					; ffffffd8H
	DD	12					; 0000000cH
	DD	$LN13@Update
	DD	-60					; ffffffc4H
	DD	12					; 0000000cH
	DD	$LN14@Update
$LN14@Update:
	DB	99					; 00000063H
	DB	117					; 00000075H
	DB	114					; 00000072H
	DB	66					; 00000042H
	DB	111					; 0000006fH
	DB	116					; 00000074H
	DB	0
$LN13@Update:
	DB	83					; 00000053H
	DB	101					; 00000065H
	DB	110					; 0000006eH
	DB	115					; 00000073H
	DB	101					; 00000065H
	DB	100					; 00000064H
	DB	66					; 00000042H
	DB	111					; 0000006fH
	DB	116					; 00000074H
	DB	115					; 00000073H
	DB	0
_TEXT	ENDS
text$x	SEGMENT
__unwindfunclet$?Update@Raven_TargetingSystem@@QAEXXZ$0:
	lea	ecx, DWORD PTR _SensedBots$[ebp]
	jmp	??1?$list@PAVRaven_Bot@@V?$allocator@PAVRaven_Bot@@@std@@@std@@QAE@XZ ; std::list<Raven_Bot *,std::allocator<Raven_Bot *> >::~list<Raven_Bot *,std::allocator<Raven_Bot *> >
__unwindfunclet$?Update@Raven_TargetingSystem@@QAEXXZ$3:
	lea	ecx, DWORD PTR _curBot$[ebp]
	jmp	??1?$_List_const_iterator@V?$_List_val@U?$_List_simple_types@PAVRaven_Bot@@@std@@@std@@@std@@QAE@XZ
__unwindfunclet$?Update@Raven_TargetingSystem@@QAEXXZ$4:
	lea	ecx, DWORD PTR $T4[ebp]
	jmp	??1?$_List_iterator@V?$_List_val@U?$_List_simple_types@PAVRaven_Bot@@@std@@@std@@@std@@QAE@XZ
__ehhandler$?Update@Raven_TargetingSystem@@QAEXXZ:
	mov	edx, DWORD PTR [esp+8]
	lea	eax, DWORD PTR [edx+12]
	mov	ecx, DWORD PTR [edx-156]
	xor	ecx, eax
	call	@__security_check_cookie@4
	mov	eax, OFFSET __ehfuncinfo$?Update@Raven_TargetingSystem@@QAEXXZ
	jmp	___CxxFrameHandler3
text$x	ENDS
?Update@Raven_TargetingSystem@@QAEXXZ ENDP		; Raven_TargetingSystem::Update
; Function compile flags: /Odtp /RTCsu
; File C:\Users\Nathanael\Desktop\raven_VS2015\VS2015\Buckland_Chapter7 to 10_Raven\Raven_TargetingSystem.cpp
_TEXT	SEGMENT
_this$ = -4						; size = 4
_owner$ = 8						; size = 4
??0Raven_TargetingSystem@@QAE@PAVRaven_Bot@@@Z PROC	; Raven_TargetingSystem::Raven_TargetingSystem
; _this$ = ecx

; 11   : {}

	push	ebp
	mov	ebp, esp
	push	ecx
	mov	DWORD PTR [ebp-4], -858993460		; ccccccccH
	mov	DWORD PTR _this$[ebp], ecx

; 9    : Raven_TargetingSystem::Raven_TargetingSystem(Raven_Bot* owner):m_pOwner(owner),

	mov	eax, DWORD PTR _this$[ebp]
	mov	ecx, DWORD PTR _owner$[ebp]
	mov	DWORD PTR [eax], ecx

; 10   :                                                                m_pCurrentTarget(0)

	mov	edx, DWORD PTR _this$[ebp]
	mov	DWORD PTR [edx+4], 0

; 11   : {}

	mov	eax, DWORD PTR _this$[ebp]
	mov	esp, ebp
	pop	ebp
	ret	4
??0Raven_TargetingSystem@@QAE@PAVRaven_Bot@@@Z ENDP	; Raven_TargetingSystem::Raven_TargetingSystem
_TEXT	ENDS
; Function compile flags: /Odtp /RTCsu
; File C:\Users\Nathanael\Desktop\raven_VS2015\VS2015\Common\2d\Vector2D.h
;	COMDAT ?Vec2DDistanceSq@@YANABUVector2D@@0@Z
_TEXT	SEGMENT
tv82 = -24						; size = 8
_xSeparation$ = -16					; size = 8
_ySeparation$ = -8					; size = 8
_v1$ = 8						; size = 4
_v2$ = 12						; size = 4
?Vec2DDistanceSq@@YANABUVector2D@@0@Z PROC		; Vec2DDistanceSq, COMDAT

; 283  : {

	push	ebp
	mov	ebp, esp
	sub	esp, 24					; 00000018H
	mov	eax, -858993460				; ccccccccH
	mov	DWORD PTR [ebp-24], eax
	mov	DWORD PTR [ebp-20], eax
	mov	DWORD PTR [ebp-16], eax
	mov	DWORD PTR [ebp-12], eax
	mov	DWORD PTR [ebp-8], eax
	mov	DWORD PTR [ebp-4], eax

; 284  : 
; 285  :   double ySeparation = v2.y - v1.y;

	mov	eax, DWORD PTR _v2$[ebp]
	mov	ecx, DWORD PTR _v1$[ebp]
	movsd	xmm0, QWORD PTR [eax+8]
	subsd	xmm0, QWORD PTR [ecx+8]
	movsd	QWORD PTR _ySeparation$[ebp], xmm0

; 286  :   double xSeparation = v2.x - v1.x;

	mov	edx, DWORD PTR _v2$[ebp]
	mov	eax, DWORD PTR _v1$[ebp]
	movsd	xmm0, QWORD PTR [edx]
	subsd	xmm0, QWORD PTR [eax]
	movsd	QWORD PTR _xSeparation$[ebp], xmm0

; 287  : 
; 288  :   return ySeparation*ySeparation + xSeparation*xSeparation;

	movsd	xmm0, QWORD PTR _ySeparation$[ebp]
	mulsd	xmm0, QWORD PTR _ySeparation$[ebp]
	movsd	xmm1, QWORD PTR _xSeparation$[ebp]
	mulsd	xmm1, QWORD PTR _xSeparation$[ebp]
	addsd	xmm0, xmm1
	movsd	QWORD PTR tv82[ebp], xmm0
	fld	QWORD PTR tv82[ebp]

; 289  : }

	mov	esp, ebp
	pop	ebp
	ret	0
?Vec2DDistanceSq@@YANABUVector2D@@0@Z ENDP		; Vec2DDistanceSq
_TEXT	ENDS
; Function compile flags: /Odtp /RTCsu
; File C:\Users\Nathanael\Desktop\raven_VS2015\VS2015\Common\misc\utils.h
;	COMDAT ??__EMinFloat@@YAXXZ
text$di	SEGMENT
??__EMinFloat@@YAXXZ PROC				; `dynamic initializer for 'MinFloat'', COMDAT

; 27   : const float   MinFloat  = (std::numeric_limits<float>::min)();

	push	ebp
	mov	ebp, esp
	call	?min@?$numeric_limits@M@std@@SAMXZ	; std::numeric_limits<float>::min
	fstp	DWORD PTR ?MinFloat@@3MB
	cmp	ebp, esp
	call	__RTC_CheckEsp
	pop	ebp
	ret	0
??__EMinFloat@@YAXXZ ENDP				; `dynamic initializer for 'MinFloat''
text$di	ENDS
; Function compile flags: /Odtp /RTCsu
; File C:\Users\Nathanael\Desktop\raven_VS2015\VS2015\Common\misc\utils.h
;	COMDAT ??__EMaxFloat@@YAXXZ
text$di	SEGMENT
??__EMaxFloat@@YAXXZ PROC				; `dynamic initializer for 'MaxFloat'', COMDAT

; 26   : const float   MaxFloat  = (std::numeric_limits<float>::max)();

	push	ebp
	mov	ebp, esp
	call	?max@?$numeric_limits@M@std@@SAMXZ	; std::numeric_limits<float>::max
	fstp	DWORD PTR ?MaxFloat@@3MB
	cmp	ebp, esp
	call	__RTC_CheckEsp
	pop	ebp
	ret	0
??__EMaxFloat@@YAXXZ ENDP				; `dynamic initializer for 'MaxFloat''
text$di	ENDS
; Function compile flags: /Odtp /RTCsu
; File C:\Users\Nathanael\Desktop\raven_VS2015\VS2015\Common\misc\utils.h
;	COMDAT ??__EMinDouble@@YAXXZ
text$di	SEGMENT
??__EMinDouble@@YAXXZ PROC				; `dynamic initializer for 'MinDouble'', COMDAT

; 25   : const double  MinDouble = (std::numeric_limits<double>::min)();

	push	ebp
	mov	ebp, esp
	call	?min@?$numeric_limits@N@std@@SANXZ	; std::numeric_limits<double>::min
	fstp	QWORD PTR ?MinDouble@@3NB
	cmp	ebp, esp
	call	__RTC_CheckEsp
	pop	ebp
	ret	0
??__EMinDouble@@YAXXZ ENDP				; `dynamic initializer for 'MinDouble''
text$di	ENDS
; Function compile flags: /Odtp /RTCsu
; File C:\Users\Nathanael\Desktop\raven_VS2015\VS2015\Common\misc\utils.h
;	COMDAT ??__EMaxDouble@@YAXXZ
text$di	SEGMENT
??__EMaxDouble@@YAXXZ PROC				; `dynamic initializer for 'MaxDouble'', COMDAT

; 24   : const double  MaxDouble = (std::numeric_limits<double>::max)();

	push	ebp
	mov	ebp, esp
	call	?max@?$numeric_limits@N@std@@SANXZ	; std::numeric_limits<double>::max
	fstp	QWORD PTR ?MaxDouble@@3NB
	cmp	ebp, esp
	call	__RTC_CheckEsp
	pop	ebp
	ret	0
??__EMaxDouble@@YAXXZ ENDP				; `dynamic initializer for 'MaxDouble''
text$di	ENDS
; Function compile flags: /Odtp /RTCsu
; File C:\Users\Nathanael\Desktop\raven_VS2015\VS2015\Common\misc\utils.h
;	COMDAT ??__EMaxInt@@YAXXZ
text$di	SEGMENT
??__EMaxInt@@YAXXZ PROC					; `dynamic initializer for 'MaxInt'', COMDAT

; 23   : const int     MaxInt    = (std::numeric_limits<int>::max)();

	push	ebp
	mov	ebp, esp
	call	?max@?$numeric_limits@H@std@@SAHXZ	; std::numeric_limits<int>::max
	mov	DWORD PTR ?MaxInt@@3HB, eax
	cmp	ebp, esp
	call	__RTC_CheckEsp
	pop	ebp
	ret	0
??__EMaxInt@@YAXXZ ENDP					; `dynamic initializer for 'MaxInt''
text$di	ENDS
; Function compile flags: /Odtp /RTCsu
; File C:\Program Files (x86)\Microsoft Visual Studio\2019\Community\VC\Tools\MSVC\14.21.27702\include\xmemory0
;	COMDAT ?_Release@_Basic_container_proxy_ptr12@std@@QAEXXZ
_TEXT	SEGMENT
_this$ = -4						; size = 4
?_Release@_Basic_container_proxy_ptr12@std@@QAEXXZ PROC	; std::_Basic_container_proxy_ptr12::_Release, COMDAT
; _this$ = ecx

; 1443 :     void _Release() noexcept { // disengage this _Basic_container_proxy_ptr12

	push	ebp
	mov	ebp, esp
	push	ecx
	mov	DWORD PTR [ebp-4], -858993460		; ccccccccH
	mov	DWORD PTR _this$[ebp], ecx

; 1444 :         _Ptr = nullptr;

	mov	eax, DWORD PTR _this$[ebp]
	mov	DWORD PTR [eax], 0

; 1445 :     }

	mov	esp, ebp
	pop	ebp
	ret	0
?_Release@_Basic_container_proxy_ptr12@std@@QAEXXZ ENDP	; std::_Basic_container_proxy_ptr12::_Release
_TEXT	ENDS
; Function compile flags: /Odtp /RTCsu
; File C:\Program Files (x86)\Microsoft Visual Studio\2019\Community\VC\Tools\MSVC\14.21.27702\include\xmemory0
;	COMDAT ?_Orphan_me@_Iterator_base12@std@@QAEXXZ
_TEXT	SEGMENT
__Pnext$1 = -8						; size = 4
_this$ = -4						; size = 4
?_Orphan_me@_Iterator_base12@std@@QAEXXZ PROC		; std::_Iterator_base12::_Orphan_me, COMDAT
; _this$ = ecx

; 1359 :     void _Orphan_me() noexcept { // cut ties with parent

	push	ebp
	mov	ebp, esp
	sub	esp, 8
	mov	DWORD PTR [ebp-8], -858993460		; ccccccccH
	mov	DWORD PTR [ebp-4], -858993460		; ccccccccH
	mov	DWORD PTR _this$[ebp], ecx

; 1360 : #if _ITERATOR_DEBUG_LEVEL == 2
; 1361 :         if (_Myproxy != nullptr) { // adopted, remove self from list

	mov	eax, DWORD PTR _this$[ebp]
	cmp	DWORD PTR [eax], 0
	je	$LN13@Orphan_me

; 1362 :             _Iterator_base12** _Pnext = &_Myproxy->_Myfirstiter;

	mov	ecx, DWORD PTR _this$[ebp]
	mov	edx, DWORD PTR [ecx]
	add	edx, 4
	mov	DWORD PTR __Pnext$1[ebp], edx
$LN2@Orphan_me:

; 1363 :             while (*_Pnext != nullptr && *_Pnext != this) {

	mov	eax, DWORD PTR __Pnext$1[ebp]
	cmp	DWORD PTR [eax], 0
	je	SHORT $LN6@Orphan_me
	mov	ecx, DWORD PTR __Pnext$1[ebp]
	mov	edx, DWORD PTR [ecx]
	cmp	edx, DWORD PTR _this$[ebp]
	je	SHORT $LN6@Orphan_me

; 1364 :                 _Pnext = &(*_Pnext)->_Mynextiter;

	mov	eax, DWORD PTR __Pnext$1[ebp]
	mov	ecx, DWORD PTR [eax]
	add	ecx, 4
	mov	DWORD PTR __Pnext$1[ebp], ecx

; 1365 :             }

	jmp	SHORT $LN2@Orphan_me
$LN6@Orphan_me:

; 1366 : 
; 1367 :             _STL_VERIFY(*_Pnext, "ITERATOR LIST CORRUPTED!");

	mov	edx, DWORD PTR __Pnext$1[ebp]
	cmp	DWORD PTR [edx], 0
	je	SHORT $LN9@Orphan_me
	jmp	SHORT $LN4@Orphan_me
$LN9@Orphan_me:
	push	OFFSET ??_C@_0BJ@LFDBABJJ@ITERATOR?5LIST?5CORRUPTED?$CB@
	push	OFFSET ??_C@_02DKCKIIND@?$CFs@
	push	0
	push	1367					; 00000557H
	push	OFFSET ??_C@_0GJ@IPOKOOCN@C?3?2Program?5Files?5?$CIx86?$CJ?2Microsof@
	push	2
	call	__CrtDbgReport
	add	esp, 24					; 00000018H
	cmp	eax, 1
	jne	SHORT $LN14@Orphan_me
	int	3
$LN14@Orphan_me:
	push	0
	push	1367					; 00000557H
	push	OFFSET ??_C@_1NC@PMLIAFCM@?$AAC?$AA?3?$AA?2?$AAP?$AAr?$AAo?$AAg?$AAr?$AAa?$AAm?$AA?5?$AAF?$AAi?$AAl?$AAe@
	push	OFFSET ??_C@_1EE@KLDMFDFL@?$AAs?$AAt?$AAd?$AA?3?$AA?3?$AA_?$AAI?$AAt?$AAe?$AAr?$AAa?$AAt?$AAo?$AAr?$AA_@
	push	OFFSET ??_C@_1DG@PLBPCAEM@?$AA?$CC?$AAI?$AAT?$AAE?$AAR?$AAA?$AAT?$AAO?$AAR?$AA?5?$AAL?$AAI?$AAS?$AAT?$AA?5@
	call	__invalid_parameter
	add	esp, 20					; 00000014H
	xor	ecx, ecx
	jne	SHORT $LN9@Orphan_me
$LN4@Orphan_me:
	xor	edx, edx
	jne	SHORT $LN6@Orphan_me

; 1368 :             *_Pnext  = _Mynextiter;

	mov	eax, DWORD PTR __Pnext$1[ebp]
	mov	ecx, DWORD PTR _this$[ebp]
	mov	edx, DWORD PTR [ecx+4]
	mov	DWORD PTR [eax], edx

; 1369 :             _Myproxy = nullptr;

	mov	eax, DWORD PTR _this$[ebp]
	mov	DWORD PTR [eax], 0
$LN13@Orphan_me:

; 1370 :         }
; 1371 : #endif // _ITERATOR_DEBUG_LEVEL == 2
; 1372 :     }

	add	esp, 8
	cmp	ebp, esp
	call	__RTC_CheckEsp
	mov	esp, ebp
	pop	ebp
	ret	0
?_Orphan_me@_Iterator_base12@std@@QAEXXZ ENDP		; std::_Iterator_base12::_Orphan_me
_TEXT	ENDS
; Function compile flags: /Odtp /RTCsu
; File C:\Program Files (x86)\Microsoft Visual Studio\2019\Community\VC\Tools\MSVC\14.21.27702\include\xmemory0
;	COMDAT ?_Getcont@_Iterator_base12@std@@QBEPBU_Container_base12@2@XZ
_TEXT	SEGMENT
tv68 = -8						; size = 4
_this$ = -4						; size = 4
?_Getcont@_Iterator_base12@std@@QBEPBU_Container_base12@2@XZ PROC ; std::_Iterator_base12::_Getcont, COMDAT
; _this$ = ecx

; 1355 :     const _Container_base12* _Getcont() const noexcept { // get owning container

	push	ebp
	mov	ebp, esp
	sub	esp, 8
	mov	DWORD PTR [ebp-8], -858993460		; ccccccccH
	mov	DWORD PTR [ebp-4], -858993460		; ccccccccH
	mov	DWORD PTR _this$[ebp], ecx

; 1356 :         return _Myproxy == nullptr ? nullptr : _Myproxy->_Mycont;

	mov	eax, DWORD PTR _this$[ebp]
	cmp	DWORD PTR [eax], 0
	jne	SHORT $LN3@Getcont
	mov	DWORD PTR tv68[ebp], 0
	jmp	SHORT $LN4@Getcont
$LN3@Getcont:
	mov	ecx, DWORD PTR _this$[ebp]
	mov	edx, DWORD PTR [ecx]
	mov	eax, DWORD PTR [edx]
	mov	DWORD PTR tv68[ebp], eax
$LN4@Getcont:
	mov	eax, DWORD PTR tv68[ebp]

; 1357 :     }

	mov	esp, ebp
	pop	ebp
	ret	0
?_Getcont@_Iterator_base12@std@@QBEPBU_Container_base12@2@XZ ENDP ; std::_Iterator_base12::_Getcont
_TEXT	ENDS
; Function compile flags: /Odtp /RTCsu
; File C:\Program Files (x86)\Microsoft Visual Studio\2019\Community\VC\Tools\MSVC\14.21.27702\include\xmemory0
;	COMDAT ?_Adopt@_Iterator_base12@std@@QAEXPBU_Container_base12@2@@Z
_TEXT	SEGMENT
__Lock$2 = -40						; size = 4
__Parent_proxy$3 = -32					; size = 4
__Lock$4 = -24						; size = 4
_this$ = -16						; size = 4
__$EHRec$ = -12						; size = 12
__Parent$ = 8						; size = 4
?_Adopt@_Iterator_base12@std@@QAEXPBU_Container_base12@2@@Z PROC ; std::_Iterator_base12::_Adopt, COMDAT
; _this$ = ecx

; 1331 :     void _Adopt(const _Container_base12* _Parent) noexcept { // adopt this iterator by parent

	push	ebp
	mov	ebp, esp
	push	-1
	push	__ehhandler$?_Adopt@_Iterator_base12@std@@QAEXPBU_Container_base12@2@@Z
	mov	eax, DWORD PTR fs:0
	push	eax
	sub	esp, 32					; 00000020H
	mov	eax, -858993460				; ccccccccH
	mov	DWORD PTR [ebp-44], eax
	mov	DWORD PTR [ebp-40], eax
	mov	DWORD PTR [ebp-36], eax
	mov	DWORD PTR [ebp-32], eax
	mov	DWORD PTR [ebp-28], eax
	mov	DWORD PTR [ebp-24], eax
	mov	DWORD PTR [ebp-20], eax
	mov	DWORD PTR [ebp-16], eax
	mov	eax, DWORD PTR ___security_cookie
	xor	eax, ebp
	push	eax
	lea	eax, DWORD PTR __$EHRec$[ebp]
	mov	DWORD PTR fs:0, eax
	mov	DWORD PTR _this$[ebp], ecx

; 1332 :         if (_Parent == nullptr) { // no future parent, just disown current parent

	cmp	DWORD PTR __Parent$[ebp], 0
	jne	SHORT $LN2@Adopt

; 1333 : #if _ITERATOR_DEBUG_LEVEL == 2
; 1334 :             _Lockit _Lock(_LOCK_DEBUG);

	push	3
	lea	ecx, DWORD PTR __Lock$4[ebp]
	call	??0_Lockit@std@@QAE@H@Z			; std::_Lockit::_Lockit

; 1335 :             _Orphan_me();

	mov	ecx, DWORD PTR _this$[ebp]
	call	?_Orphan_me@_Iterator_base12@std@@QAEXXZ ; std::_Iterator_base12::_Orphan_me

; 1336 : #endif // _ITERATOR_DEBUG_LEVEL == 2
; 1337 :         } else { // have a parent, do adoption

	lea	ecx, DWORD PTR __Lock$4[ebp]
	call	??1_Lockit@std@@QAE@XZ			; std::_Lockit::~_Lockit
	jmp	SHORT $LN5@Adopt
$LN2@Adopt:

; 1338 :             _Container_proxy* _Parent_proxy = _Parent->_Myproxy;

	mov	eax, DWORD PTR __Parent$[ebp]
	mov	ecx, DWORD PTR [eax]
	mov	DWORD PTR __Parent_proxy$3[ebp], ecx

; 1339 : 
; 1340 : #if _ITERATOR_DEBUG_LEVEL == 2
; 1341 :             if (_Myproxy != _Parent_proxy) { // change parentage

	mov	edx, DWORD PTR _this$[ebp]
	mov	eax, DWORD PTR [edx]
	cmp	eax, DWORD PTR __Parent_proxy$3[ebp]
	je	SHORT $LN5@Adopt

; 1342 :                 _Lockit _Lock(_LOCK_DEBUG);

	push	3
	lea	ecx, DWORD PTR __Lock$2[ebp]
	call	??0_Lockit@std@@QAE@H@Z			; std::_Lockit::_Lockit

; 1343 :                 _Orphan_me();

	mov	ecx, DWORD PTR _this$[ebp]
	call	?_Orphan_me@_Iterator_base12@std@@QAEXXZ ; std::_Iterator_base12::_Orphan_me

; 1344 :                 _Mynextiter                 = _Parent_proxy->_Myfirstiter;

	mov	ecx, DWORD PTR _this$[ebp]
	mov	edx, DWORD PTR __Parent_proxy$3[ebp]
	mov	eax, DWORD PTR [edx+4]
	mov	DWORD PTR [ecx+4], eax

; 1345 :                 _Parent_proxy->_Myfirstiter = this;

	mov	ecx, DWORD PTR __Parent_proxy$3[ebp]
	mov	edx, DWORD PTR _this$[ebp]
	mov	DWORD PTR [ecx+4], edx

; 1346 :                 _Myproxy                    = _Parent_proxy;

	mov	eax, DWORD PTR _this$[ebp]
	mov	ecx, DWORD PTR __Parent_proxy$3[ebp]
	mov	DWORD PTR [eax], ecx

; 1347 :             }

	lea	ecx, DWORD PTR __Lock$2[ebp]
	call	??1_Lockit@std@@QAE@XZ			; std::_Lockit::~_Lockit
$LN5@Adopt:

; 1348 : 
; 1349 : #else // _ITERATOR_DEBUG_LEVEL == 2
; 1350 :             _Myproxy = _Parent_proxy;
; 1351 : #endif // _ITERATOR_DEBUG_LEVEL == 2
; 1352 :         }
; 1353 :     }

	push	edx
	mov	ecx, ebp
	push	eax
	lea	edx, DWORD PTR $LN10@Adopt
	call	@_RTC_CheckStackVars@8
	pop	eax
	pop	edx
	mov	ecx, DWORD PTR __$EHRec$[ebp]
	mov	DWORD PTR fs:0, ecx
	pop	ecx
	add	esp, 44					; 0000002cH
	cmp	ebp, esp
	call	__RTC_CheckEsp
	mov	esp, ebp
	pop	ebp
	ret	4
$LN10@Adopt:
	DD	2
	DD	$LN9@Adopt
$LN9@Adopt:
	DD	-24					; ffffffe8H
	DD	4
	DD	$LN6@Adopt
	DD	-40					; ffffffd8H
	DD	4
	DD	$LN7@Adopt
$LN7@Adopt:
	DB	95					; 0000005fH
	DB	76					; 0000004cH
	DB	111					; 0000006fH
	DB	99					; 00000063H
	DB	107					; 0000006bH
	DB	0
$LN6@Adopt:
	DB	95					; 0000005fH
	DB	76					; 0000004cH
	DB	111					; 0000006fH
	DB	99					; 00000063H
	DB	107					; 0000006bH
	DB	0
_TEXT	ENDS
;	COMDAT text$x
text$x	SEGMENT
__ehhandler$?_Adopt@_Iterator_base12@std@@QAEXPBU_Container_base12@2@@Z:
	mov	edx, DWORD PTR [esp+8]
	lea	eax, DWORD PTR [edx+12]
	mov	ecx, DWORD PTR [edx-36]
	xor	ecx, eax
	call	@__security_check_cookie@4
	mov	eax, OFFSET __ehfuncinfo$?_Adopt@_Iterator_base12@std@@QAEXPBU_Container_base12@2@@Z
	jmp	___CxxFrameHandler3
text$x	ENDS
?_Adopt@_Iterator_base12@std@@QAEXPBU_Container_base12@2@@Z ENDP ; std::_Iterator_base12::_Adopt
; Function compile flags: /Odtp /RTCsu
; File C:\Program Files (x86)\Microsoft Visual Studio\2019\Community\VC\Tools\MSVC\14.21.27702\include\xmemory0
;	COMDAT ??1_Iterator_base12@std@@QAE@XZ
_TEXT	SEGMENT
__Lock$ = -24						; size = 4
_this$ = -16						; size = 4
__$EHRec$ = -12						; size = 12
??1_Iterator_base12@std@@QAE@XZ PROC			; std::_Iterator_base12::~_Iterator_base12, COMDAT
; _this$ = ecx

; 1324 :     ~_Iterator_base12() noexcept { // destroy the iterator

	push	ebp
	mov	ebp, esp
	push	-1
	push	__ehhandler$??1_Iterator_base12@std@@QAE@XZ
	mov	eax, DWORD PTR fs:0
	push	eax
	sub	esp, 16					; 00000010H
	mov	eax, -858993460				; ccccccccH
	mov	DWORD PTR [ebp-28], eax
	mov	DWORD PTR [ebp-24], eax
	mov	DWORD PTR [ebp-20], eax
	mov	DWORD PTR [ebp-16], eax
	mov	eax, DWORD PTR ___security_cookie
	xor	eax, ebp
	push	eax
	lea	eax, DWORD PTR __$EHRec$[ebp]
	mov	DWORD PTR fs:0, eax
	mov	DWORD PTR _this$[ebp], ecx

; 1325 : #if _ITERATOR_DEBUG_LEVEL == 2
; 1326 :         _Lockit _Lock(_LOCK_DEBUG);

	push	3
	lea	ecx, DWORD PTR __Lock$[ebp]
	call	??0_Lockit@std@@QAE@H@Z			; std::_Lockit::_Lockit

; 1327 :         _Orphan_me();

	mov	ecx, DWORD PTR _this$[ebp]
	call	?_Orphan_me@_Iterator_base12@std@@QAEXXZ ; std::_Iterator_base12::_Orphan_me

; 1328 : #endif // _ITERATOR_DEBUG_LEVEL == 2
; 1329 :     }

	lea	ecx, DWORD PTR __Lock$[ebp]
	call	??1_Lockit@std@@QAE@XZ			; std::_Lockit::~_Lockit
	push	edx
	mov	ecx, ebp
	push	eax
	lea	edx, DWORD PTR $LN6@Iterator_b
	call	@_RTC_CheckStackVars@8
	pop	eax
	pop	edx
	mov	ecx, DWORD PTR __$EHRec$[ebp]
	mov	DWORD PTR fs:0, ecx
	pop	ecx
	add	esp, 28					; 0000001cH
	cmp	ebp, esp
	call	__RTC_CheckEsp
	mov	esp, ebp
	pop	ebp
	ret	0
	npad	3
$LN6@Iterator_b:
	DD	1
	DD	$LN5@Iterator_b
$LN5@Iterator_b:
	DD	-24					; ffffffe8H
	DD	4
	DD	$LN3@Iterator_b
$LN3@Iterator_b:
	DB	95					; 0000005fH
	DB	76					; 0000004cH
	DB	111					; 0000006fH
	DB	99					; 00000063H
	DB	107					; 0000006bH
	DB	0
_TEXT	ENDS
;	COMDAT text$x
text$x	SEGMENT
__ehhandler$??1_Iterator_base12@std@@QAE@XZ:
	mov	edx, DWORD PTR [esp+8]
	lea	eax, DWORD PTR [edx+12]
	mov	ecx, DWORD PTR [edx-20]
	xor	ecx, eax
	call	@__security_check_cookie@4
	mov	eax, OFFSET __ehfuncinfo$??1_Iterator_base12@std@@QAE@XZ
	jmp	___CxxFrameHandler3
text$x	ENDS
??1_Iterator_base12@std@@QAE@XZ ENDP			; std::_Iterator_base12::~_Iterator_base12
; Function compile flags: /Odtp /RTCsu
; File C:\Program Files (x86)\Microsoft Visual Studio\2019\Community\VC\Tools\MSVC\14.21.27702\include\xmemory0
;	COMDAT ??4_Iterator_base12@std@@QAEAAU01@ABU01@@Z
_TEXT	SEGMENT
__Lock$2 = -24						; size = 4
_this$ = -16						; size = 4
__$EHRec$ = -12						; size = 12
__Right$ = 8						; size = 4
??4_Iterator_base12@std@@QAEAAU01@ABU01@@Z PROC		; std::_Iterator_base12::operator=, COMDAT
; _this$ = ecx

; 1309 :     _Iterator_base12& operator=(const _Iterator_base12& _Right) noexcept { // assign an iterator

	push	ebp
	mov	ebp, esp
	push	-1
	push	__ehhandler$??4_Iterator_base12@std@@QAEAAU01@ABU01@@Z
	mov	eax, DWORD PTR fs:0
	push	eax
	sub	esp, 16					; 00000010H
	mov	eax, -858993460				; ccccccccH
	mov	DWORD PTR [ebp-28], eax
	mov	DWORD PTR [ebp-24], eax
	mov	DWORD PTR [ebp-20], eax
	mov	DWORD PTR [ebp-16], eax
	mov	eax, DWORD PTR ___security_cookie
	xor	eax, ebp
	push	eax
	lea	eax, DWORD PTR __$EHRec$[ebp]
	mov	DWORD PTR fs:0, eax
	mov	DWORD PTR _this$[ebp], ecx

; 1310 :         if (_Myproxy != _Right._Myproxy) {

	mov	eax, DWORD PTR _this$[ebp]
	mov	ecx, DWORD PTR __Right$[ebp]
	mov	edx, DWORD PTR [eax]
	cmp	edx, DWORD PTR [ecx]
	je	SHORT $LN2@operator

; 1311 :             if (_Right._Myproxy == nullptr) { // becoming invalid, disown current parent

	mov	eax, DWORD PTR __Right$[ebp]
	cmp	DWORD PTR [eax], 0
	jne	SHORT $LN3@operator

; 1312 : #if _ITERATOR_DEBUG_LEVEL == 2
; 1313 :                 _Lockit _Lock(_LOCK_DEBUG);

	push	3
	lea	ecx, DWORD PTR __Lock$2[ebp]
	call	??0_Lockit@std@@QAE@H@Z			; std::_Lockit::_Lockit

; 1314 :                 _Orphan_me();

	mov	ecx, DWORD PTR _this$[ebp]
	call	?_Orphan_me@_Iterator_base12@std@@QAEXXZ ; std::_Iterator_base12::_Orphan_me

; 1315 : #endif // _ITERATOR_DEBUG_LEVEL == 2
; 1316 :             } else {

	lea	ecx, DWORD PTR __Lock$2[ebp]
	call	??1_Lockit@std@@QAE@XZ			; std::_Lockit::~_Lockit
	jmp	SHORT $LN2@operator
$LN3@operator:

; 1317 :                 _Adopt(_Right._Myproxy->_Mycont);

	mov	ecx, DWORD PTR __Right$[ebp]
	mov	edx, DWORD PTR [ecx]
	mov	eax, DWORD PTR [edx]
	push	eax
	mov	ecx, DWORD PTR _this$[ebp]
	call	?_Adopt@_Iterator_base12@std@@QAEXPBU_Container_base12@2@@Z ; std::_Iterator_base12::_Adopt
$LN2@operator:

; 1318 :             }
; 1319 :         }
; 1320 : 
; 1321 :         return *this;

	mov	eax, DWORD PTR _this$[ebp]

; 1322 :     }

	push	edx
	mov	ecx, ebp
	push	eax
	lea	edx, DWORD PTR $LN9@operator
	call	@_RTC_CheckStackVars@8
	pop	eax
	pop	edx
	mov	ecx, DWORD PTR __$EHRec$[ebp]
	mov	DWORD PTR fs:0, ecx
	pop	ecx
	add	esp, 28					; 0000001cH
	cmp	ebp, esp
	call	__RTC_CheckEsp
	mov	esp, ebp
	pop	ebp
	ret	4
$LN9@operator:
	DD	1
	DD	$LN8@operator
$LN8@operator:
	DD	-24					; ffffffe8H
	DD	4
	DD	$LN6@operator
$LN6@operator:
	DB	95					; 0000005fH
	DB	76					; 0000004cH
	DB	111					; 0000006fH
	DB	99					; 00000063H
	DB	107					; 0000006bH
	DB	0
_TEXT	ENDS
;	COMDAT text$x
text$x	SEGMENT
__ehhandler$??4_Iterator_base12@std@@QAEAAU01@ABU01@@Z:
	mov	edx, DWORD PTR [esp+8]
	lea	eax, DWORD PTR [edx+12]
	mov	ecx, DWORD PTR [edx-20]
	xor	ecx, eax
	call	@__security_check_cookie@4
	mov	eax, OFFSET __ehfuncinfo$??4_Iterator_base12@std@@QAEAAU01@ABU01@@Z
	jmp	___CxxFrameHandler3
text$x	ENDS
??4_Iterator_base12@std@@QAEAAU01@ABU01@@Z ENDP		; std::_Iterator_base12::operator=
; Function compile flags: /Odtp /RTCsu
; File C:\Program Files (x86)\Microsoft Visual Studio\2019\Community\VC\Tools\MSVC\14.21.27702\include\xmemory0
;	COMDAT ??0_Iterator_base12@std@@QAE@ABU01@@Z
_TEXT	SEGMENT
_this$ = -4						; size = 4
__Right$ = 8						; size = 4
??0_Iterator_base12@std@@QAE@ABU01@@Z PROC		; std::_Iterator_base12::_Iterator_base12, COMDAT
; _this$ = ecx

; 1304 :     _Iterator_base12(const _Iterator_base12& _Right) noexcept

	push	ebp
	mov	ebp, esp
	push	ecx
	mov	DWORD PTR [ebp-4], -858993460		; ccccccccH
	mov	DWORD PTR _this$[ebp], ecx

; 1305 :         : _Myproxy(nullptr), _Mynextiter(nullptr) { // copy an iterator

	mov	eax, DWORD PTR _this$[ebp]
	mov	DWORD PTR [eax], 0
	mov	ecx, DWORD PTR _this$[ebp]
	mov	DWORD PTR [ecx+4], 0

; 1306 :         *this = _Right;

	mov	edx, DWORD PTR __Right$[ebp]
	push	edx
	mov	ecx, DWORD PTR _this$[ebp]
	call	??4_Iterator_base12@std@@QAEAAU01@ABU01@@Z ; std::_Iterator_base12::operator=

; 1307 :     }

	mov	eax, DWORD PTR _this$[ebp]
	add	esp, 4
	cmp	ebp, esp
	call	__RTC_CheckEsp
	mov	esp, ebp
	pop	ebp
	ret	4
??0_Iterator_base12@std@@QAE@ABU01@@Z ENDP		; std::_Iterator_base12::_Iterator_base12
_TEXT	ENDS
; Function compile flags: /Odtp /RTCsu
; File C:\Program Files (x86)\Microsoft Visual Studio\2019\Community\VC\Tools\MSVC\14.21.27702\include\xmemory0
;	COMDAT ??0_Iterator_base12@std@@QAE@XZ
_TEXT	SEGMENT
_this$ = -4						; size = 4
??0_Iterator_base12@std@@QAE@XZ PROC			; std::_Iterator_base12::_Iterator_base12, COMDAT
; _this$ = ecx

; 1301 :     _Iterator_base12() noexcept : _Myproxy(nullptr), _Mynextiter(nullptr) { // construct orphaned iterator

	push	ebp
	mov	ebp, esp
	push	ecx
	mov	DWORD PTR [ebp-4], -858993460		; ccccccccH
	mov	DWORD PTR _this$[ebp], ecx
	mov	eax, DWORD PTR _this$[ebp]
	mov	DWORD PTR [eax], 0
	mov	ecx, DWORD PTR _this$[ebp]
	mov	DWORD PTR [ecx+4], 0

; 1302 :     }

	mov	eax, DWORD PTR _this$[ebp]
	mov	esp, ebp
	pop	ebp
	ret	0
??0_Iterator_base12@std@@QAE@XZ ENDP			; std::_Iterator_base12::_Iterator_base12
_TEXT	ENDS
; Function compile flags: /Odtp /RTCsu
; File C:\Program Files (x86)\Microsoft Visual Studio\2019\Community\VC\Tools\MSVC\14.21.27702\include\xmemory0
;	COMDAT ?_Swap_proxy_and_iterators@_Container_base12@std@@QAEXAAU12@@Z
_TEXT	SEGMENT
__Temp$ = -32						; size = 4
__Lock$ = -24						; size = 4
_this$ = -16						; size = 4
__$EHRec$ = -12						; size = 12
__Right$ = 8						; size = 4
?_Swap_proxy_and_iterators@_Container_base12@std@@QAEXAAU12@@Z PROC ; std::_Container_base12::_Swap_proxy_and_iterators, COMDAT
; _this$ = ecx

; 1396 : inline void _Container_base12::_Swap_proxy_and_iterators(_Container_base12& _Right) noexcept { // swap all iterators

	push	ebp
	mov	ebp, esp
	push	-1
	push	__ehhandler$?_Swap_proxy_and_iterators@_Container_base12@std@@QAEXAAU12@@Z
	mov	eax, DWORD PTR fs:0
	push	eax
	sub	esp, 20					; 00000014H
	mov	eax, -858993460				; ccccccccH
	mov	DWORD PTR [ebp-32], eax
	mov	DWORD PTR [ebp-28], eax
	mov	DWORD PTR [ebp-24], eax
	mov	DWORD PTR [ebp-20], eax
	mov	DWORD PTR [ebp-16], eax
	mov	eax, DWORD PTR ___security_cookie
	xor	eax, ebp
	push	eax
	lea	eax, DWORD PTR __$EHRec$[ebp]
	mov	DWORD PTR fs:0, eax
	mov	DWORD PTR _this$[ebp], ecx

; 1397 : #if _ITERATOR_DEBUG_LEVEL == 2
; 1398 :     _Lockit _Lock(_LOCK_DEBUG);

	push	3
	lea	ecx, DWORD PTR __Lock$[ebp]
	call	??0_Lockit@std@@QAE@H@Z			; std::_Lockit::_Lockit

; 1399 : #endif // _ITERATOR_DEBUG_LEVEL == 2
; 1400 : 
; 1401 :     _Container_proxy* _Temp = _Myproxy;

	mov	eax, DWORD PTR _this$[ebp]
	mov	ecx, DWORD PTR [eax]
	mov	DWORD PTR __Temp$[ebp], ecx

; 1402 :     _Myproxy                = _Right._Myproxy;

	mov	edx, DWORD PTR _this$[ebp]
	mov	eax, DWORD PTR __Right$[ebp]
	mov	ecx, DWORD PTR [eax]
	mov	DWORD PTR [edx], ecx

; 1403 :     _Right._Myproxy         = _Temp;

	mov	edx, DWORD PTR __Right$[ebp]
	mov	eax, DWORD PTR __Temp$[ebp]
	mov	DWORD PTR [edx], eax

; 1404 : 
; 1405 :     if (_Myproxy != nullptr) {

	mov	ecx, DWORD PTR _this$[ebp]
	cmp	DWORD PTR [ecx], 0
	je	SHORT $LN2@Swap_proxy

; 1406 :         _Myproxy->_Mycont = this;

	mov	edx, DWORD PTR _this$[ebp]
	mov	eax, DWORD PTR [edx]
	mov	ecx, DWORD PTR _this$[ebp]
	mov	DWORD PTR [eax], ecx
$LN2@Swap_proxy:

; 1407 :     }
; 1408 : 
; 1409 :     if (_Right._Myproxy != nullptr) {

	mov	edx, DWORD PTR __Right$[ebp]
	cmp	DWORD PTR [edx], 0
	je	SHORT $LN3@Swap_proxy

; 1410 :         _Right._Myproxy->_Mycont = &_Right;

	mov	eax, DWORD PTR __Right$[ebp]
	mov	ecx, DWORD PTR [eax]
	mov	edx, DWORD PTR __Right$[ebp]
	mov	DWORD PTR [ecx], edx
$LN3@Swap_proxy:

; 1411 :     }
; 1412 : }

	lea	ecx, DWORD PTR __Lock$[ebp]
	call	??1_Lockit@std@@QAE@XZ			; std::_Lockit::~_Lockit
	push	edx
	mov	ecx, ebp
	push	eax
	lea	edx, DWORD PTR $LN8@Swap_proxy
	call	@_RTC_CheckStackVars@8
	pop	eax
	pop	edx
	mov	ecx, DWORD PTR __$EHRec$[ebp]
	mov	DWORD PTR fs:0, ecx
	pop	ecx
	add	esp, 32					; 00000020H
	cmp	ebp, esp
	call	__RTC_CheckEsp
	mov	esp, ebp
	pop	ebp
	ret	4
$LN8@Swap_proxy:
	DD	1
	DD	$LN7@Swap_proxy
$LN7@Swap_proxy:
	DD	-24					; ffffffe8H
	DD	4
	DD	$LN5@Swap_proxy
$LN5@Swap_proxy:
	DB	95					; 0000005fH
	DB	76					; 0000004cH
	DB	111					; 0000006fH
	DB	99					; 00000063H
	DB	107					; 0000006bH
	DB	0
_TEXT	ENDS
;	COMDAT text$x
text$x	SEGMENT
__ehhandler$?_Swap_proxy_and_iterators@_Container_base12@std@@QAEXAAU12@@Z:
	mov	edx, DWORD PTR [esp+8]
	lea	eax, DWORD PTR [edx+12]
	mov	ecx, DWORD PTR [edx-24]
	xor	ecx, eax
	call	@__security_check_cookie@4
	mov	eax, OFFSET __ehfuncinfo$?_Swap_proxy_and_iterators@_Container_base12@std@@QAEXAAU12@@Z
	jmp	___CxxFrameHandler3
text$x	ENDS
?_Swap_proxy_and_iterators@_Container_base12@std@@QAEXAAU12@@Z ENDP ; std::_Container_base12::_Swap_proxy_and_iterators
; Function compile flags: /Odtp /RTCsu
; File C:\Program Files (x86)\Microsoft Visual Studio\2019\Community\VC\Tools\MSVC\14.21.27702\include\xmemory0
;	COMDAT ?_Orphan_all@_Container_base12@std@@QAEXXZ
_TEXT	SEGMENT
__Pnext$2 = -32						; size = 4
__Lock$3 = -24						; size = 4
_this$ = -16						; size = 4
__$EHRec$ = -12						; size = 12
?_Orphan_all@_Container_base12@std@@QAEXXZ PROC		; std::_Container_base12::_Orphan_all, COMDAT
; _this$ = ecx

; 1381 : inline void _Container_base12::_Orphan_all() noexcept { // orphan all iterators

	push	ebp
	mov	ebp, esp
	push	-1
	push	__ehhandler$?_Orphan_all@_Container_base12@std@@QAEXXZ
	mov	eax, DWORD PTR fs:0
	push	eax
	sub	esp, 20					; 00000014H
	mov	eax, -858993460				; ccccccccH
	mov	DWORD PTR [ebp-32], eax
	mov	DWORD PTR [ebp-28], eax
	mov	DWORD PTR [ebp-24], eax
	mov	DWORD PTR [ebp-20], eax
	mov	DWORD PTR [ebp-16], eax
	mov	eax, DWORD PTR ___security_cookie
	xor	eax, ebp
	push	eax
	lea	eax, DWORD PTR __$EHRec$[ebp]
	mov	DWORD PTR fs:0, eax
	mov	DWORD PTR _this$[ebp], ecx

; 1382 : #if _ITERATOR_DEBUG_LEVEL == 2
; 1383 :     if (_Myproxy != nullptr) { // proxy allocated, drain it

	mov	eax, DWORD PTR _this$[ebp]
	cmp	DWORD PTR [eax], 0
	je	SHORT $LN6@Orphan_all

; 1384 :         _Lockit _Lock(_LOCK_DEBUG);

	push	3
	lea	ecx, DWORD PTR __Lock$3[ebp]
	call	??0_Lockit@std@@QAE@H@Z			; std::_Lockit::_Lockit

; 1385 : 
; 1386 :         for (_Iterator_base12** _Pnext = &_Myproxy->_Myfirstiter; *_Pnext != nullptr;

	mov	ecx, DWORD PTR _this$[ebp]
	mov	edx, DWORD PTR [ecx]
	add	edx, 4
	mov	DWORD PTR __Pnext$2[ebp], edx
	jmp	SHORT $LN4@Orphan_all
$LN2@Orphan_all:

; 1387 :              *_Pnext                   = (*_Pnext)->_Mynextiter) {

	mov	eax, DWORD PTR __Pnext$2[ebp]
	mov	ecx, DWORD PTR [eax]
	mov	edx, DWORD PTR __Pnext$2[ebp]
	mov	eax, DWORD PTR [ecx+4]
	mov	DWORD PTR [edx], eax
$LN4@Orphan_all:

; 1385 : 
; 1386 :         for (_Iterator_base12** _Pnext = &_Myproxy->_Myfirstiter; *_Pnext != nullptr;

	mov	ecx, DWORD PTR __Pnext$2[ebp]
	cmp	DWORD PTR [ecx], 0
	je	SHORT $LN3@Orphan_all

; 1388 :             (*_Pnext)->_Myproxy = nullptr;

	mov	edx, DWORD PTR __Pnext$2[ebp]
	mov	eax, DWORD PTR [edx]
	mov	DWORD PTR [eax], 0

; 1389 :         }

	jmp	SHORT $LN2@Orphan_all
$LN3@Orphan_all:

; 1390 : 
; 1391 :         _Myproxy->_Myfirstiter = nullptr;

	mov	ecx, DWORD PTR _this$[ebp]
	mov	edx, DWORD PTR [ecx]
	mov	DWORD PTR [edx+4], 0

; 1392 :     }

	lea	ecx, DWORD PTR __Lock$3[ebp]
	call	??1_Lockit@std@@QAE@XZ			; std::_Lockit::~_Lockit
$LN6@Orphan_all:

; 1393 : #endif // _ITERATOR_DEBUG_LEVEL == 2
; 1394 : }

	push	edx
	mov	ecx, ebp
	push	eax
	lea	edx, DWORD PTR $LN10@Orphan_all
	call	@_RTC_CheckStackVars@8
	pop	eax
	pop	edx
	mov	ecx, DWORD PTR __$EHRec$[ebp]
	mov	DWORD PTR fs:0, ecx
	pop	ecx
	add	esp, 32					; 00000020H
	cmp	ebp, esp
	call	__RTC_CheckEsp
	mov	esp, ebp
	pop	ebp
	ret	0
	npad	1
$LN10@Orphan_all:
	DD	1
	DD	$LN9@Orphan_all
$LN9@Orphan_all:
	DD	-24					; ffffffe8H
	DD	4
	DD	$LN7@Orphan_all
$LN7@Orphan_all:
	DB	95					; 0000005fH
	DB	76					; 0000004cH
	DB	111					; 0000006fH
	DB	99					; 00000063H
	DB	107					; 0000006bH
	DB	0
_TEXT	ENDS
;	COMDAT text$x
text$x	SEGMENT
__ehhandler$?_Orphan_all@_Container_base12@std@@QAEXXZ:
	mov	edx, DWORD PTR [esp+8]
	lea	eax, DWORD PTR [edx+12]
	mov	ecx, DWORD PTR [edx-24]
	xor	ecx, eax
	call	@__security_check_cookie@4
	mov	eax, OFFSET __ehfuncinfo$?_Orphan_all@_Container_base12@std@@QAEXXZ
	jmp	___CxxFrameHandler3
text$x	ENDS
?_Orphan_all@_Container_base12@std@@QAEXXZ ENDP		; std::_Container_base12::_Orphan_all
; Function compile flags: /Odtp /RTCsu
; File C:\Program Files (x86)\Microsoft Visual Studio\2019\Community\VC\Tools\MSVC\14.21.27702\include\xmemory0
;	COMDAT ??0_Container_base12@std@@QAE@XZ
_TEXT	SEGMENT
_this$ = -4						; size = 4
??0_Container_base12@std@@QAE@XZ PROC			; std::_Container_base12::_Container_base12, COMDAT
; _this$ = ecx

; 1270 :     _Container_base12() : _Myproxy(nullptr) { // construct childless container

	push	ebp
	mov	ebp, esp
	push	ecx
	mov	DWORD PTR [ebp-4], -858993460		; ccccccccH
	mov	DWORD PTR _this$[ebp], ecx
	mov	eax, DWORD PTR _this$[ebp]
	mov	DWORD PTR [eax], 0

; 1271 :     }

	mov	eax, DWORD PTR _this$[ebp]
	mov	esp, ebp
	pop	ebp
	ret	0
??0_Container_base12@std@@QAE@XZ ENDP			; std::_Container_base12::_Container_base12
_TEXT	ENDS
; Function compile flags: /Odtp /RTCsu
; File C:\Program Files (x86)\Microsoft Visual Studio\2019\Community\VC\Tools\MSVC\14.21.27702\include\xmemory0
;	COMDAT ??0_Container_proxy@std@@QAE@PAU_Container_base12@1@@Z
_TEXT	SEGMENT
_this$ = -4						; size = 4
__Mycont_$ = 8						; size = 4
??0_Container_proxy@std@@QAE@PAU_Container_base12@1@@Z PROC ; std::_Container_proxy::_Container_proxy, COMDAT
; _this$ = ecx

; 1262 :     _Container_proxy(_Container_base12* _Mycont_) noexcept : _Mycont(_Mycont_), _Myfirstiter(nullptr) {}

	push	ebp
	mov	ebp, esp
	push	ecx
	mov	DWORD PTR [ebp-4], -858993460		; ccccccccH
	mov	DWORD PTR _this$[ebp], ecx
	mov	eax, DWORD PTR _this$[ebp]
	mov	ecx, DWORD PTR __Mycont_$[ebp]
	mov	DWORD PTR [eax], ecx
	mov	edx, DWORD PTR _this$[ebp]
	mov	DWORD PTR [edx+4], 0
	mov	eax, DWORD PTR _this$[ebp]
	mov	esp, ebp
	pop	ebp
	ret	4
??0_Container_proxy@std@@QAE@PAU_Container_base12@1@@Z ENDP ; std::_Container_proxy::_Container_proxy
_TEXT	ENDS
; Function compile flags: /Odtp /RTCsu
; File C:\Program Files (x86)\Microsoft Visual Studio\2019\Community\VC\Tools\MSVC\14.21.27702\include\xmemory0
;	COMDAT ?_Adjust_manually_vector_aligned@std@@YAXAAPAXAAI@Z
_TEXT	SEGMENT
__Back_shift$ = -16					; size = 4
__Min_back_shift$ = -12					; size = 4
__Ptr_container$ = -8					; size = 4
__Ptr_user$ = -4					; size = 4
__Ptr$ = 8						; size = 4
__Bytes$ = 12						; size = 4
?_Adjust_manually_vector_aligned@std@@YAXAAPAXAAI@Z PROC ; std::_Adjust_manually_vector_aligned, COMDAT

; 107  :     size_t& _Bytes) { // adjust parameters from _Allocate_manually_vector_aligned to pass to operator delete

	push	ebp
	mov	ebp, esp
	sub	esp, 16					; 00000010H
	mov	eax, -858993460				; ccccccccH
	mov	DWORD PTR [ebp-16], eax
	mov	DWORD PTR [ebp-12], eax
	mov	DWORD PTR [ebp-8], eax
	mov	DWORD PTR [ebp-4], eax

; 108  :     _Bytes += _Non_user_size;

	mov	eax, DWORD PTR __Bytes$[ebp]
	mov	ecx, DWORD PTR [eax]
	add	ecx, 39					; 00000027H
	mov	edx, DWORD PTR __Bytes$[ebp]
	mov	DWORD PTR [edx], ecx

; 109  : 
; 110  :     const uintptr_t* const _Ptr_user = reinterpret_cast<uintptr_t*>(_Ptr);

	mov	eax, DWORD PTR __Ptr$[ebp]
	mov	ecx, DWORD PTR [eax]
	mov	DWORD PTR __Ptr_user$[ebp], ecx

; 111  :     const uintptr_t _Ptr_container   = _Ptr_user[-1];

	mov	edx, 4
	imul	eax, edx, -1
	mov	ecx, DWORD PTR __Ptr_user$[ebp]
	mov	edx, DWORD PTR [ecx+eax]
	mov	DWORD PTR __Ptr_container$[ebp], edx
$LN4@Adjust_man:

; 112  : 
; 113  :     // If the following asserts, it likely means that we are performing
; 114  :     // an aligned delete on memory coming from an unaligned allocation.
; 115  :     _STL_ASSERT(_Ptr_user[-2] == _Big_allocation_sentinel, "invalid argument");

	mov	eax, 4
	imul	ecx, eax, -2
	mov	edx, DWORD PTR __Ptr_user$[ebp]
	cmp	DWORD PTR [edx+ecx], -84215046		; fafafafaH
	jne	SHORT $LN7@Adjust_man
	jmp	SHORT $LN2@Adjust_man
$LN7@Adjust_man:
	push	OFFSET ??_C@_0BB@FCMFBGOM@invalid?5argument@
	push	OFFSET ??_C@_02DKCKIIND@?$CFs@
	push	0
	push	115					; 00000073H
	push	OFFSET ??_C@_0GJ@IPOKOOCN@C?3?2Program?5Files?5?$CIx86?$CJ?2Microsof@
	push	2
	call	__CrtDbgReport
	add	esp, 24					; 00000018H
	cmp	eax, 1
	jne	SHORT $LN19@Adjust_man
	int	3
$LN19@Adjust_man:
	push	0
	push	115					; 00000073H
	push	OFFSET ??_C@_1NC@PMLIAFCM@?$AAC?$AA?3?$AA?2?$AAP?$AAr?$AAo?$AAg?$AAr?$AAa?$AAm?$AA?5?$AAF?$AAi?$AAl?$AAe@
	push	OFFSET ??_C@_1EK@NIFDJFDG@?$AAs?$AAt?$AAd?$AA?3?$AA?3?$AA_?$AAA?$AAd?$AAj?$AAu?$AAs?$AAt?$AA_?$AAm?$AAa@
	push	OFFSET ??_C@_1CG@JNLFBNGN@?$AA?$CC?$AAi?$AAn?$AAv?$AAa?$AAl?$AAi?$AAd?$AA?5?$AAa?$AAr?$AAg?$AAu?$AAm?$AAe@
	call	__invalid_parameter
	add	esp, 20					; 00000014H
	xor	ecx, ecx
	jne	SHORT $LN7@Adjust_man
$LN2@Adjust_man:
	xor	edx, edx
	jne	SHORT $LN4@Adjust_man

; 116  : 
; 117  :     // Extra paranoia on aligned allocation/deallocation; ensure _Ptr_container is
; 118  :     // in range [_Min_back_shift, _Non_user_size]
; 119  : #ifdef _DEBUG
; 120  :     constexpr uintptr_t _Min_back_shift = 2 * sizeof(void*);

	mov	DWORD PTR __Min_back_shift$[ebp], 8

; 121  : #else // ^^^ _DEBUG ^^^ // vvv !_DEBUG vvv
; 122  :     constexpr uintptr_t _Min_back_shift = sizeof(void*);
; 123  : #endif // _DEBUG
; 124  :     const uintptr_t _Back_shift = reinterpret_cast<uintptr_t>(_Ptr) - _Ptr_container;

	mov	eax, DWORD PTR __Ptr$[ebp]
	mov	ecx, DWORD PTR [eax]
	sub	ecx, DWORD PTR __Ptr_container$[ebp]
	mov	DWORD PTR __Back_shift$[ebp], ecx
$LN10@Adjust_man:

; 125  :     _STL_VERIFY(_Back_shift >= _Min_back_shift && _Back_shift <= _Non_user_size, "invalid argument");

	cmp	DWORD PTR __Back_shift$[ebp], 8
	jb	SHORT $LN13@Adjust_man
	cmp	DWORD PTR __Back_shift$[ebp], 39	; 00000027H
	ja	SHORT $LN13@Adjust_man
	jmp	SHORT $LN8@Adjust_man
$LN13@Adjust_man:
	push	OFFSET ??_C@_0BB@FCMFBGOM@invalid?5argument@
	push	OFFSET ??_C@_02DKCKIIND@?$CFs@
	push	0
	push	125					; 0000007dH
	push	OFFSET ??_C@_0GJ@IPOKOOCN@C?3?2Program?5Files?5?$CIx86?$CJ?2Microsof@
	push	2
	call	__CrtDbgReport
	add	esp, 24					; 00000018H
	cmp	eax, 1
	jne	SHORT $LN20@Adjust_man
	int	3
$LN20@Adjust_man:
	push	0
	push	125					; 0000007dH
	push	OFFSET ??_C@_1NC@PMLIAFCM@?$AAC?$AA?3?$AA?2?$AAP?$AAr?$AAo?$AAg?$AAr?$AAa?$AAm?$AA?5?$AAF?$AAi?$AAl?$AAe@
	push	OFFSET ??_C@_1EK@NIFDJFDG@?$AAs?$AAt?$AAd?$AA?3?$AA?3?$AA_?$AAA?$AAd?$AAj?$AAu?$AAs?$AAt?$AA_?$AAm?$AAa@
	push	OFFSET ??_C@_1CG@JNLFBNGN@?$AA?$CC?$AAi?$AAn?$AAv?$AAa?$AAl?$AAi?$AAd?$AA?5?$AAa?$AAr?$AAg?$AAu?$AAm?$AAe@
	call	__invalid_parameter
	add	esp, 20					; 00000014H
	xor	eax, eax
	jne	SHORT $LN13@Adjust_man
$LN8@Adjust_man:
	xor	ecx, ecx
	jne	SHORT $LN10@Adjust_man

; 126  :     _Ptr = reinterpret_cast<void*>(_Ptr_container);

	mov	edx, DWORD PTR __Ptr$[ebp]
	mov	eax, DWORD PTR __Ptr_container$[ebp]
	mov	DWORD PTR [edx], eax

; 127  : }

	add	esp, 16					; 00000010H
	cmp	ebp, esp
	call	__RTC_CheckEsp
	mov	esp, ebp
	pop	ebp
	ret	0
?_Adjust_manually_vector_aligned@std@@YAXAAPAXAAI@Z ENDP ; std::_Adjust_manually_vector_aligned
_TEXT	ENDS
; Function compile flags: /Odtp /RTCsu
; File C:\Program Files (x86)\Microsoft Visual Studio\2019\Community\VC\Tools\MSVC\14.21.27702\include\xmemory0
;	COMDAT ?_Allocate@_Default_allocate_traits@std@@SAPAXI@Z
_TEXT	SEGMENT
__Bytes$ = 8						; size = 4
?_Allocate@_Default_allocate_traits@std@@SAPAXI@Z PROC	; std::_Default_allocate_traits::_Allocate, COMDAT

; 49   :     _DECLSPEC_ALLOCATOR static void* _Allocate(const size_t _Bytes) {

	push	ebp
	mov	ebp, esp

; 50   :         return ::operator new(_Bytes);

	mov	eax, DWORD PTR __Bytes$[ebp]
	push	eax
	call	??2@YAPAXI@Z				; operator new
	add	esp, 4

; 51   :     }

	cmp	ebp, esp
	call	__RTC_CheckEsp
	pop	ebp
	ret	0
?_Allocate@_Default_allocate_traits@std@@SAPAXI@Z ENDP	; std::_Default_allocate_traits::_Allocate
_TEXT	ENDS
; Function compile flags: /Odtp /RTCsu
; File C:\Program Files (x86)\Microsoft Visual Studio\2019\Community\VC\Tools\MSVC\14.21.27702\include\limits
;	COMDAT ?max@?$numeric_limits@N@std@@SANXZ
_TEXT	SEGMENT
?max@?$numeric_limits@N@std@@SANXZ PROC			; std::numeric_limits<double>::max, COMDAT

; 873  :     _NODISCARD static constexpr double(max)() noexcept { // return maximum value

	push	ebp
	mov	ebp, esp

; 874  :         return DBL_MAX;

	fld	QWORD PTR __real@7fefffffffffffff

; 875  :     }

	pop	ebp
	ret	0
?max@?$numeric_limits@N@std@@SANXZ ENDP			; std::numeric_limits<double>::max
_TEXT	ENDS
; Function compile flags: /Odtp /RTCsu
; File C:\Program Files (x86)\Microsoft Visual Studio\2019\Community\VC\Tools\MSVC\14.21.27702\include\limits
;	COMDAT ?min@?$numeric_limits@N@std@@SANXZ
_TEXT	SEGMENT
?min@?$numeric_limits@N@std@@SANXZ PROC			; std::numeric_limits<double>::min, COMDAT

; 869  :     _NODISCARD static constexpr double(min)() noexcept { // return minimum value

	push	ebp
	mov	ebp, esp

; 870  :         return DBL_MIN;

	fld	QWORD PTR __real@0010000000000000

; 871  :     }

	pop	ebp
	ret	0
?min@?$numeric_limits@N@std@@SANXZ ENDP			; std::numeric_limits<double>::min
_TEXT	ENDS
; Function compile flags: /Odtp /RTCsu
; File C:\Program Files (x86)\Microsoft Visual Studio\2019\Community\VC\Tools\MSVC\14.21.27702\include\limits
;	COMDAT ?max@?$numeric_limits@M@std@@SAMXZ
_TEXT	SEGMENT
?max@?$numeric_limits@M@std@@SAMXZ PROC			; std::numeric_limits<float>::max, COMDAT

; 824  :     _NODISCARD static constexpr float(max)() noexcept { // return maximum value

	push	ebp
	mov	ebp, esp

; 825  :         return FLT_MAX;

	fld	DWORD PTR __real@7f7fffff

; 826  :     }

	pop	ebp
	ret	0
?max@?$numeric_limits@M@std@@SAMXZ ENDP			; std::numeric_limits<float>::max
_TEXT	ENDS
; Function compile flags: /Odtp /RTCsu
; File C:\Program Files (x86)\Microsoft Visual Studio\2019\Community\VC\Tools\MSVC\14.21.27702\include\limits
;	COMDAT ?min@?$numeric_limits@M@std@@SAMXZ
_TEXT	SEGMENT
?min@?$numeric_limits@M@std@@SAMXZ PROC			; std::numeric_limits<float>::min, COMDAT

; 820  :     _NODISCARD static constexpr float(min)() noexcept { // return minimum value

	push	ebp
	mov	ebp, esp

; 821  :         return FLT_MIN;

	fld	DWORD PTR __real@00800000

; 822  :     }

	pop	ebp
	ret	0
?min@?$numeric_limits@M@std@@SAMXZ ENDP			; std::numeric_limits<float>::min
_TEXT	ENDS
; Function compile flags: /Odtp /RTCsu
; File C:\Program Files (x86)\Microsoft Visual Studio\2019\Community\VC\Tools\MSVC\14.21.27702\include\limits
;	COMDAT ?max@?$numeric_limits@H@std@@SAHXZ
_TEXT	SEGMENT
?max@?$numeric_limits@H@std@@SAHXZ PROC			; std::numeric_limits<int>::max, COMDAT

; 507  :     _NODISCARD static constexpr int(max)() noexcept { // return maximum value

	push	ebp
	mov	ebp, esp

; 508  :         return INT_MAX;

	mov	eax, 2147483647				; 7fffffffH

; 509  :     }

	pop	ebp
	ret	0
?max@?$numeric_limits@H@std@@SAHXZ ENDP			; std::numeric_limits<int>::max
_TEXT	ENDS
; Function compile flags: /Odtp /RTCsu
; File C:\Program Files (x86)\Microsoft Visual Studio\2019\Community\VC\Tools\MSVC\14.21.27702\include\vcruntime_new.h
;	COMDAT ??2@YAPAXIPAX@Z
_TEXT	SEGMENT
__Size$ = 8						; size = 4
__Where$ = 12						; size = 4
??2@YAPAXIPAX@Z PROC					; operator new, COMDAT

; 168  :     {

	push	ebp
	mov	ebp, esp

; 169  :         (void)_Size;
; 170  :         return _Where;

	mov	eax, DWORD PTR __Where$[ebp]

; 171  :     }

	pop	ebp
	ret	0
??2@YAPAXIPAX@Z ENDP					; operator new
_TEXT	ENDS
; Function compile flags: /Odtp /RTCsu
; File C:\Users\Nathanael\Desktop\raven_VS2015\VS2015\Buckland_Chapter7 to 10_Raven\Raven_TargetingSystem.cpp
;	COMDAT ?__empty_global_delete@@YAXPAXI@Z
_TEXT	SEGMENT
___formal$ = 8						; size = 4
___formal$ = 12						; size = 4
?__empty_global_delete@@YAXPAXI@Z PROC			; __empty_global_delete, COMDAT

	push	ebp
	mov	ebp, esp
	pop	ebp
	ret	0
?__empty_global_delete@@YAXPAXI@Z ENDP			; __empty_global_delete
_TEXT	ENDS
; Function compile flags: /Odtp /RTCsu
; File C:\Users\Nathanael\Desktop\raven_VS2015\VS2015\Buckland_Chapter7 to 10_Raven\Raven_TargetingSystem.cpp
;	COMDAT ?__empty_global_delete@@YAXPAX@Z
_TEXT	SEGMENT
___formal$ = 8						; size = 4
?__empty_global_delete@@YAXPAX@Z PROC			; __empty_global_delete, COMDAT

	push	ebp
	mov	ebp, esp
	pop	ebp
	ret	0
?__empty_global_delete@@YAXPAX@Z ENDP			; __empty_global_delete
_TEXT	ENDS
END
